ARM GAS  C:\Users\gmh5970\AppData\Local\Temp\ccPMdwtb.s 			page 1


   1              		.syntax unified
   2              		.cpu cortex-m3
   3              		.fpu softvfp
   4              		.eabi_attribute 20, 1
   5              		.eabi_attribute 21, 1
   6              		.eabi_attribute 23, 3
   7              		.eabi_attribute 24, 1
   8              		.eabi_attribute 25, 1
   9              		.eabi_attribute 26, 1
  10              		.eabi_attribute 30, 6
  11              		.eabi_attribute 34, 1
  12              		.eabi_attribute 18, 4
  13              		.thumb
  14              		.file	"cyfitter_cfg.c"
  15              		.text
  16              	.Ltext0:
  17              		.cfi_sections	.debug_frame
  18              		.section	.text.CYMEMZERO,"ax",%progbits
  19              		.align	2
  20              		.thumb
  21              		.thumb_func
  22              		.type	CYMEMZERO, %function
  23              	CYMEMZERO:
  24              	.LFB0:
  25              		.file 1 ".\\Generated_Source\\PSoC5\\cyfitter_cfg.c"
   1:.\Generated_Source\PSoC5/cyfitter_cfg.c **** /*******************************************************************************
   2:.\Generated_Source\PSoC5/cyfitter_cfg.c **** * FILENAME: cyfitter_cfg.c
   3:.\Generated_Source\PSoC5/cyfitter_cfg.c **** * PSoC Creator 3.0 SP2
   4:.\Generated_Source\PSoC5/cyfitter_cfg.c **** *
   5:.\Generated_Source\PSoC5/cyfitter_cfg.c **** * Description:
   6:.\Generated_Source\PSoC5/cyfitter_cfg.c **** * This file is automatically generated by PSoC Creator with device 
   7:.\Generated_Source\PSoC5/cyfitter_cfg.c **** * initialization code.  Except for the user defined sections in
   8:.\Generated_Source\PSoC5/cyfitter_cfg.c **** * CyClockStartupError(), this file should not be modified.
   9:.\Generated_Source\PSoC5/cyfitter_cfg.c **** *
  10:.\Generated_Source\PSoC5/cyfitter_cfg.c **** ********************************************************************************
  11:.\Generated_Source\PSoC5/cyfitter_cfg.c **** * Copyright 2013, Cypress Semiconductor Corporation.  All rights reserved.
  12:.\Generated_Source\PSoC5/cyfitter_cfg.c **** * You may use this file only in accordance with the license, terms, conditions, 
  13:.\Generated_Source\PSoC5/cyfitter_cfg.c **** * disclaimers, and limitations in the end user license agreement accompanying 
  14:.\Generated_Source\PSoC5/cyfitter_cfg.c **** * the software package with which this file was provided.
  15:.\Generated_Source\PSoC5/cyfitter_cfg.c **** ********************************************************************************/
  16:.\Generated_Source\PSoC5/cyfitter_cfg.c **** 
  17:.\Generated_Source\PSoC5/cyfitter_cfg.c **** #include <string.h>
  18:.\Generated_Source\PSoC5/cyfitter_cfg.c **** #include <cytypes.h>
  19:.\Generated_Source\PSoC5/cyfitter_cfg.c **** #include <cydevice_trm.h>
  20:.\Generated_Source\PSoC5/cyfitter_cfg.c **** #include <cyfitter.h>
  21:.\Generated_Source\PSoC5/cyfitter_cfg.c **** #include <CyLib.h>
  22:.\Generated_Source\PSoC5/cyfitter_cfg.c **** #include <cyfitter_cfg.h>
  23:.\Generated_Source\PSoC5/cyfitter_cfg.c **** 
  24:.\Generated_Source\PSoC5/cyfitter_cfg.c **** #define CY_NEED_CYCLOCKSTARTUPERROR 1
  25:.\Generated_Source\PSoC5/cyfitter_cfg.c **** 
  26:.\Generated_Source\PSoC5/cyfitter_cfg.c **** 
  27:.\Generated_Source\PSoC5/cyfitter_cfg.c **** #if defined(__GNUC__) || defined(__ARMCC_VERSION)
  28:.\Generated_Source\PSoC5/cyfitter_cfg.c ****     #define CYPACKED 
  29:.\Generated_Source\PSoC5/cyfitter_cfg.c ****     #define CYPACKED_ATTR __attribute__ ((packed))
  30:.\Generated_Source\PSoC5/cyfitter_cfg.c ****     #define CYALIGNED __attribute__ ((aligned))
  31:.\Generated_Source\PSoC5/cyfitter_cfg.c ****     #define CY_CFG_UNUSED __attribute__ ((unused))
  32:.\Generated_Source\PSoC5/cyfitter_cfg.c ****     #define CY_CFG_SECTION __attribute__ ((section(".psocinit")))
ARM GAS  C:\Users\gmh5970\AppData\Local\Temp\ccPMdwtb.s 			page 2


  33:.\Generated_Source\PSoC5/cyfitter_cfg.c ****     
  34:.\Generated_Source\PSoC5/cyfitter_cfg.c ****     #if defined(__ARMCC_VERSION)
  35:.\Generated_Source\PSoC5/cyfitter_cfg.c ****         #define CY_CFG_MEMORY_BARRIER() __memory_changed()
  36:.\Generated_Source\PSoC5/cyfitter_cfg.c ****     #else
  37:.\Generated_Source\PSoC5/cyfitter_cfg.c ****         #define CY_CFG_MEMORY_BARRIER() __sync_synchronize()
  38:.\Generated_Source\PSoC5/cyfitter_cfg.c ****     #endif
  39:.\Generated_Source\PSoC5/cyfitter_cfg.c ****     
  40:.\Generated_Source\PSoC5/cyfitter_cfg.c **** #elif defined(__ICCARM__)
  41:.\Generated_Source\PSoC5/cyfitter_cfg.c ****     #include <intrinsics.h>
  42:.\Generated_Source\PSoC5/cyfitter_cfg.c **** 
  43:.\Generated_Source\PSoC5/cyfitter_cfg.c ****     #define CYPACKED __packed
  44:.\Generated_Source\PSoC5/cyfitter_cfg.c ****     #define CYPACKED_ATTR 
  45:.\Generated_Source\PSoC5/cyfitter_cfg.c ****     #define CYALIGNED _Pragma("data_alignment=4")
  46:.\Generated_Source\PSoC5/cyfitter_cfg.c ****     #define CY_CFG_UNUSED _Pragma("diag_suppress=Pe177")
  47:.\Generated_Source\PSoC5/cyfitter_cfg.c ****     #define CY_CFG_SECTION _Pragma("location=\".psocinit\"")
  48:.\Generated_Source\PSoC5/cyfitter_cfg.c ****     
  49:.\Generated_Source\PSoC5/cyfitter_cfg.c ****     #define CY_CFG_MEMORY_BARRIER() __DMB()
  50:.\Generated_Source\PSoC5/cyfitter_cfg.c ****     
  51:.\Generated_Source\PSoC5/cyfitter_cfg.c **** #else
  52:.\Generated_Source\PSoC5/cyfitter_cfg.c ****     #error Unsupported toolchain
  53:.\Generated_Source\PSoC5/cyfitter_cfg.c **** #endif
  54:.\Generated_Source\PSoC5/cyfitter_cfg.c **** 
  55:.\Generated_Source\PSoC5/cyfitter_cfg.c **** 
  56:.\Generated_Source\PSoC5/cyfitter_cfg.c **** CY_CFG_UNUSED
  57:.\Generated_Source\PSoC5/cyfitter_cfg.c **** static void CYMEMZERO(void *s, size_t n);
  58:.\Generated_Source\PSoC5/cyfitter_cfg.c **** CY_CFG_UNUSED
  59:.\Generated_Source\PSoC5/cyfitter_cfg.c **** static void CYMEMZERO(void *s, size_t n)
  60:.\Generated_Source\PSoC5/cyfitter_cfg.c **** {
  26              		.loc 1 60 0
  27              		.cfi_startproc
  28              		@ args = 0, pretend = 0, frame = 8
  29              		@ frame_needed = 1, uses_anonymous_args = 0
  30 0000 80B5     		push	{r7, lr}
  31              	.LCFI0:
  32              		.cfi_def_cfa_offset 8
  33              		.cfi_offset 7, -8
  34              		.cfi_offset 14, -4
  35 0002 82B0     		sub	sp, sp, #8
  36              	.LCFI1:
  37              		.cfi_def_cfa_offset 16
  38 0004 00AF     		add	r7, sp, #0
  39              	.LCFI2:
  40              		.cfi_def_cfa_register 7
  41 0006 7860     		str	r0, [r7, #4]
  42 0008 3960     		str	r1, [r7, #0]
  61:.\Generated_Source\PSoC5/cyfitter_cfg.c **** 	(void)memset(s, 0, n);
  43              		.loc 1 61 0
  44 000a 7868     		ldr	r0, [r7, #4]
  45 000c 4FF00001 		mov	r1, #0
  46 0010 3A68     		ldr	r2, [r7, #0]
  47 0012 FFF7FEFF 		bl	memset
  62:.\Generated_Source\PSoC5/cyfitter_cfg.c **** }
  48              		.loc 1 62 0
  49 0016 07F10807 		add	r7, r7, #8
  50 001a BD46     		mov	sp, r7
  51 001c 80BD     		pop	{r7, pc}
  52              		.cfi_endproc
ARM GAS  C:\Users\gmh5970\AppData\Local\Temp\ccPMdwtb.s 			page 3


  53              	.LFE0:
  54              		.size	CYMEMZERO, .-CYMEMZERO
  55 001e 00BF     		.section	.text.CYCONFIGCPY,"ax",%progbits
  56              		.align	2
  57              		.thumb
  58              		.thumb_func
  59              		.type	CYCONFIGCPY, %function
  60              	CYCONFIGCPY:
  61              	.LFB1:
  63:.\Generated_Source\PSoC5/cyfitter_cfg.c **** CY_CFG_UNUSED
  64:.\Generated_Source\PSoC5/cyfitter_cfg.c **** static void CYCONFIGCPY(void *dest, const void *src, size_t n);
  65:.\Generated_Source\PSoC5/cyfitter_cfg.c **** CY_CFG_UNUSED
  66:.\Generated_Source\PSoC5/cyfitter_cfg.c **** static void CYCONFIGCPY(void *dest, const void *src, size_t n)
  67:.\Generated_Source\PSoC5/cyfitter_cfg.c **** {
  62              		.loc 1 67 0
  63              		.cfi_startproc
  64              		@ args = 0, pretend = 0, frame = 16
  65              		@ frame_needed = 1, uses_anonymous_args = 0
  66 0000 80B5     		push	{r7, lr}
  67              	.LCFI3:
  68              		.cfi_def_cfa_offset 8
  69              		.cfi_offset 7, -8
  70              		.cfi_offset 14, -4
  71 0002 84B0     		sub	sp, sp, #16
  72              	.LCFI4:
  73              		.cfi_def_cfa_offset 24
  74 0004 00AF     		add	r7, sp, #0
  75              	.LCFI5:
  76              		.cfi_def_cfa_register 7
  77 0006 F860     		str	r0, [r7, #12]
  78 0008 B960     		str	r1, [r7, #8]
  79 000a 7A60     		str	r2, [r7, #4]
  68:.\Generated_Source\PSoC5/cyfitter_cfg.c **** 	(void)memcpy(dest, src, n);
  80              		.loc 1 68 0
  81 000c F868     		ldr	r0, [r7, #12]
  82 000e B968     		ldr	r1, [r7, #8]
  83 0010 7A68     		ldr	r2, [r7, #4]
  84 0012 FFF7FEFF 		bl	memcpy
  69:.\Generated_Source\PSoC5/cyfitter_cfg.c **** }
  85              		.loc 1 69 0
  86 0016 07F11007 		add	r7, r7, #16
  87 001a BD46     		mov	sp, r7
  88 001c 80BD     		pop	{r7, pc}
  89              		.cfi_endproc
  90              	.LFE1:
  91              		.size	CYCONFIGCPY, .-CYCONFIGCPY
  92 001e 00BF     		.section	.text.CYCONFIGCPYCODE,"ax",%progbits
  93              		.align	2
  94              		.thumb
  95              		.thumb_func
  96              		.type	CYCONFIGCPYCODE, %function
  97              	CYCONFIGCPYCODE:
  98              	.LFB2:
  70:.\Generated_Source\PSoC5/cyfitter_cfg.c **** CY_CFG_UNUSED
  71:.\Generated_Source\PSoC5/cyfitter_cfg.c **** static void CYCONFIGCPYCODE(void *dest, const void *src, size_t n);
  72:.\Generated_Source\PSoC5/cyfitter_cfg.c **** CY_CFG_UNUSED
  73:.\Generated_Source\PSoC5/cyfitter_cfg.c **** static void CYCONFIGCPYCODE(void *dest, const void *src, size_t n)
ARM GAS  C:\Users\gmh5970\AppData\Local\Temp\ccPMdwtb.s 			page 4


  74:.\Generated_Source\PSoC5/cyfitter_cfg.c **** {
  99              		.loc 1 74 0
 100              		.cfi_startproc
 101              		@ args = 0, pretend = 0, frame = 16
 102              		@ frame_needed = 1, uses_anonymous_args = 0
 103 0000 80B5     		push	{r7, lr}
 104              	.LCFI6:
 105              		.cfi_def_cfa_offset 8
 106              		.cfi_offset 7, -8
 107              		.cfi_offset 14, -4
 108 0002 84B0     		sub	sp, sp, #16
 109              	.LCFI7:
 110              		.cfi_def_cfa_offset 24
 111 0004 00AF     		add	r7, sp, #0
 112              	.LCFI8:
 113              		.cfi_def_cfa_register 7
 114 0006 F860     		str	r0, [r7, #12]
 115 0008 B960     		str	r1, [r7, #8]
 116 000a 7A60     		str	r2, [r7, #4]
  75:.\Generated_Source\PSoC5/cyfitter_cfg.c **** 	(void)memcpy(dest, src, n);
 117              		.loc 1 75 0
 118 000c F868     		ldr	r0, [r7, #12]
 119 000e B968     		ldr	r1, [r7, #8]
 120 0010 7A68     		ldr	r2, [r7, #4]
 121 0012 FFF7FEFF 		bl	memcpy
  76:.\Generated_Source\PSoC5/cyfitter_cfg.c **** }
 122              		.loc 1 76 0
 123 0016 07F11007 		add	r7, r7, #16
 124 001a BD46     		mov	sp, r7
 125 001c 80BD     		pop	{r7, pc}
 126              		.cfi_endproc
 127              	.LFE2:
 128              		.size	CYCONFIGCPYCODE, .-CYCONFIGCPYCODE
 129 001e 00BF     		.section	.text.CyClockStartupError,"ax",%progbits
 130              		.align	2
 131              		.thumb
 132              		.thumb_func
 133              		.type	CyClockStartupError, %function
 134              	CyClockStartupError:
 135              	.LFB3:
  77:.\Generated_Source\PSoC5/cyfitter_cfg.c **** 
  78:.\Generated_Source\PSoC5/cyfitter_cfg.c **** 
  79:.\Generated_Source\PSoC5/cyfitter_cfg.c **** 
  80:.\Generated_Source\PSoC5/cyfitter_cfg.c **** /* Clock startup error codes                                                   */
  81:.\Generated_Source\PSoC5/cyfitter_cfg.c **** #define CYCLOCKSTART_NO_ERROR    0u
  82:.\Generated_Source\PSoC5/cyfitter_cfg.c **** #define CYCLOCKSTART_XTAL_ERROR  1u
  83:.\Generated_Source\PSoC5/cyfitter_cfg.c **** #define CYCLOCKSTART_32KHZ_ERROR 2u
  84:.\Generated_Source\PSoC5/cyfitter_cfg.c **** #define CYCLOCKSTART_PLL_ERROR   3u
  85:.\Generated_Source\PSoC5/cyfitter_cfg.c **** 
  86:.\Generated_Source\PSoC5/cyfitter_cfg.c **** #ifdef CY_NEED_CYCLOCKSTARTUPERROR
  87:.\Generated_Source\PSoC5/cyfitter_cfg.c **** /*******************************************************************************
  88:.\Generated_Source\PSoC5/cyfitter_cfg.c **** * Function Name: CyClockStartupError
  89:.\Generated_Source\PSoC5/cyfitter_cfg.c **** ********************************************************************************
  90:.\Generated_Source\PSoC5/cyfitter_cfg.c **** * Summary:
  91:.\Generated_Source\PSoC5/cyfitter_cfg.c **** *  If an error is encountered during clock configuration (crystal startup error,
  92:.\Generated_Source\PSoC5/cyfitter_cfg.c **** *  PLL lock error, etc.), the system will end up here.  Unless reimplemented by
  93:.\Generated_Source\PSoC5/cyfitter_cfg.c **** *  the customer, this function will stop in an infinite loop.
ARM GAS  C:\Users\gmh5970\AppData\Local\Temp\ccPMdwtb.s 			page 5


  94:.\Generated_Source\PSoC5/cyfitter_cfg.c **** *
  95:.\Generated_Source\PSoC5/cyfitter_cfg.c **** * Parameters:
  96:.\Generated_Source\PSoC5/cyfitter_cfg.c **** *   void
  97:.\Generated_Source\PSoC5/cyfitter_cfg.c **** *
  98:.\Generated_Source\PSoC5/cyfitter_cfg.c **** * Return:
  99:.\Generated_Source\PSoC5/cyfitter_cfg.c **** *   void
 100:.\Generated_Source\PSoC5/cyfitter_cfg.c **** *
 101:.\Generated_Source\PSoC5/cyfitter_cfg.c **** *******************************************************************************/
 102:.\Generated_Source\PSoC5/cyfitter_cfg.c **** CY_CFG_UNUSED
 103:.\Generated_Source\PSoC5/cyfitter_cfg.c **** static void CyClockStartupError(uint8 errorCode);
 104:.\Generated_Source\PSoC5/cyfitter_cfg.c **** CY_CFG_UNUSED
 105:.\Generated_Source\PSoC5/cyfitter_cfg.c **** static void CyClockStartupError(uint8 errorCode)
 106:.\Generated_Source\PSoC5/cyfitter_cfg.c **** {
 136              		.loc 1 106 0
 137              		.cfi_startproc
 138              		@ args = 0, pretend = 0, frame = 8
 139              		@ frame_needed = 1, uses_anonymous_args = 0
 140              		@ link register save eliminated.
 141 0000 80B4     		push	{r7}
 142              	.LCFI9:
 143              		.cfi_def_cfa_offset 4
 144              		.cfi_offset 7, -4
 145 0002 83B0     		sub	sp, sp, #12
 146              	.LCFI10:
 147              		.cfi_def_cfa_offset 16
 148 0004 00AF     		add	r7, sp, #0
 149              	.LCFI11:
 150              		.cfi_def_cfa_register 7
 151 0006 0346     		mov	r3, r0
 152 0008 FB71     		strb	r3, [r7, #7]
 153              	.L5:
 107:.\Generated_Source\PSoC5/cyfitter_cfg.c ****     /* To remove the compiler warning if errorCode not used.                */
 108:.\Generated_Source\PSoC5/cyfitter_cfg.c ****     errorCode = errorCode;
 109:.\Generated_Source\PSoC5/cyfitter_cfg.c **** 
 110:.\Generated_Source\PSoC5/cyfitter_cfg.c ****     /* `#START CyClockStartupError` */
 111:.\Generated_Source\PSoC5/cyfitter_cfg.c **** 
 112:.\Generated_Source\PSoC5/cyfitter_cfg.c ****     /* If we have a clock startup error (bad MHz crystal, PLL lock, etc.),  */
 113:.\Generated_Source\PSoC5/cyfitter_cfg.c ****     /* we will end up here to allow the customer to implement something to  */
 114:.\Generated_Source\PSoC5/cyfitter_cfg.c ****     /* deal with the clock condition.                                       */
 115:.\Generated_Source\PSoC5/cyfitter_cfg.c **** 
 116:.\Generated_Source\PSoC5/cyfitter_cfg.c ****     /* `#END` */
 117:.\Generated_Source\PSoC5/cyfitter_cfg.c **** 
 118:.\Generated_Source\PSoC5/cyfitter_cfg.c ****     /* If nothing else, stop here since the clocks have not started         */
 119:.\Generated_Source\PSoC5/cyfitter_cfg.c ****     /* correctly.                                                           */
 120:.\Generated_Source\PSoC5/cyfitter_cfg.c ****     while(1) {}
 154              		.loc 1 120 0 discriminator 1
 155 000a FEE7     		b	.L5
 156              		.cfi_endproc
 157              	.LFE3:
 158              		.size	CyClockStartupError, .-CyClockStartupError
 159              		.section	.text.cfg_write_bytes32,"ax",%progbits
 160              		.align	2
 161              		.thumb
 162              		.thumb_func
 163              		.type	cfg_write_bytes32, %function
 164              	cfg_write_bytes32:
 165              	.LFB4:
ARM GAS  C:\Users\gmh5970\AppData\Local\Temp\ccPMdwtb.s 			page 6


 121:.\Generated_Source\PSoC5/cyfitter_cfg.c **** }
 122:.\Generated_Source\PSoC5/cyfitter_cfg.c **** #endif
 123:.\Generated_Source\PSoC5/cyfitter_cfg.c **** 
 124:.\Generated_Source\PSoC5/cyfitter_cfg.c **** #define CY_CFG_BASE_ADDR_COUNT 12u
 125:.\Generated_Source\PSoC5/cyfitter_cfg.c **** CYPACKED typedef struct
 126:.\Generated_Source\PSoC5/cyfitter_cfg.c **** {
 127:.\Generated_Source\PSoC5/cyfitter_cfg.c **** 	uint8 offset;
 128:.\Generated_Source\PSoC5/cyfitter_cfg.c **** 	uint8 value;
 129:.\Generated_Source\PSoC5/cyfitter_cfg.c **** } CYPACKED_ATTR cy_cfg_addrvalue_t;
 130:.\Generated_Source\PSoC5/cyfitter_cfg.c **** 
 131:.\Generated_Source\PSoC5/cyfitter_cfg.c **** 
 132:.\Generated_Source\PSoC5/cyfitter_cfg.c **** 
 133:.\Generated_Source\PSoC5/cyfitter_cfg.c **** /*******************************************************************************
 134:.\Generated_Source\PSoC5/cyfitter_cfg.c **** * Function Name: cfg_write_bytes32
 135:.\Generated_Source\PSoC5/cyfitter_cfg.c **** ********************************************************************************
 136:.\Generated_Source\PSoC5/cyfitter_cfg.c **** * Summary:
 137:.\Generated_Source\PSoC5/cyfitter_cfg.c **** *  This function is used for setting up the chip configuration areas that
 138:.\Generated_Source\PSoC5/cyfitter_cfg.c **** *  contain relatively sparse data.
 139:.\Generated_Source\PSoC5/cyfitter_cfg.c **** *
 140:.\Generated_Source\PSoC5/cyfitter_cfg.c **** * Parameters:
 141:.\Generated_Source\PSoC5/cyfitter_cfg.c **** *   void
 142:.\Generated_Source\PSoC5/cyfitter_cfg.c **** *
 143:.\Generated_Source\PSoC5/cyfitter_cfg.c **** * Return:
 144:.\Generated_Source\PSoC5/cyfitter_cfg.c **** *   void
 145:.\Generated_Source\PSoC5/cyfitter_cfg.c **** *
 146:.\Generated_Source\PSoC5/cyfitter_cfg.c **** *******************************************************************************/
 147:.\Generated_Source\PSoC5/cyfitter_cfg.c **** static void cfg_write_bytes32(const uint32 addr_table[], const cy_cfg_addrvalue_t data_table[]);
 148:.\Generated_Source\PSoC5/cyfitter_cfg.c **** static void cfg_write_bytes32(const uint32 addr_table[], const cy_cfg_addrvalue_t data_table[])
 149:.\Generated_Source\PSoC5/cyfitter_cfg.c **** {
 166              		.loc 1 149 0
 167              		.cfi_startproc
 168              		@ args = 0, pretend = 0, frame = 24
 169              		@ frame_needed = 1, uses_anonymous_args = 0
 170              		@ link register save eliminated.
 171 0000 80B4     		push	{r7}
 172              	.LCFI12:
 173              		.cfi_def_cfa_offset 4
 174              		.cfi_offset 7, -4
 175 0002 87B0     		sub	sp, sp, #28
 176              	.LCFI13:
 177              		.cfi_def_cfa_offset 32
 178 0004 00AF     		add	r7, sp, #0
 179              	.LCFI14:
 180              		.cfi_def_cfa_register 7
 181 0006 7860     		str	r0, [r7, #4]
 182 0008 3960     		str	r1, [r7, #0]
 150:.\Generated_Source\PSoC5/cyfitter_cfg.c **** 	/* For 32-bit little-endian architectures */
 151:.\Generated_Source\PSoC5/cyfitter_cfg.c **** 	uint32 i, j = 0u;
 183              		.loc 1 151 0
 184 000a 4FF00003 		mov	r3, #0
 185 000e 3B61     		str	r3, [r7, #16]
 152:.\Generated_Source\PSoC5/cyfitter_cfg.c **** 	for (i = 0u; i < CY_CFG_BASE_ADDR_COUNT; i++)
 186              		.loc 1 152 0
 187 0010 4FF00003 		mov	r3, #0
 188 0014 7B61     		str	r3, [r7, #20]
 189 0016 2CE0     		b	.L7
 190              	.L10:
ARM GAS  C:\Users\gmh5970\AppData\Local\Temp\ccPMdwtb.s 			page 7


 191              	.LBB2:
 153:.\Generated_Source\PSoC5/cyfitter_cfg.c **** 	{
 154:.\Generated_Source\PSoC5/cyfitter_cfg.c **** 		uint32 baseAddr = addr_table[i];
 192              		.loc 1 154 0
 193 0018 7B69     		ldr	r3, [r7, #20]
 194 001a 4FEA8303 		lsl	r3, r3, #2
 195 001e 7A68     		ldr	r2, [r7, #4]
 196 0020 D318     		adds	r3, r2, r3
 197 0022 1B68     		ldr	r3, [r3, #0]
 198 0024 BB60     		str	r3, [r7, #8]
 155:.\Generated_Source\PSoC5/cyfitter_cfg.c **** 		uint8 count = (uint8)baseAddr;
 199              		.loc 1 155 0
 200 0026 BB68     		ldr	r3, [r7, #8]
 201 0028 FB73     		strb	r3, [r7, #15]
 156:.\Generated_Source\PSoC5/cyfitter_cfg.c **** 		baseAddr &= 0xFFFFFF00u;
 202              		.loc 1 156 0
 203 002a BB68     		ldr	r3, [r7, #8]
 204 002c 23F0FF03 		bic	r3, r3, #255
 205 0030 BB60     		str	r3, [r7, #8]
 157:.\Generated_Source\PSoC5/cyfitter_cfg.c **** 		while (count != 0u)
 206              		.loc 1 157 0
 207 0032 17E0     		b	.L8
 208              	.L9:
 158:.\Generated_Source\PSoC5/cyfitter_cfg.c **** 		{
 159:.\Generated_Source\PSoC5/cyfitter_cfg.c **** 			CY_SET_XTND_REG8((void CYFAR *)(baseAddr + data_table[j].offset), data_table[j].value);
 209              		.loc 1 159 0
 210 0034 3B69     		ldr	r3, [r7, #16]
 211 0036 4FEA4303 		lsl	r3, r3, #1
 212 003a 3A68     		ldr	r2, [r7, #0]
 213 003c D318     		adds	r3, r2, r3
 214 003e 1B78     		ldrb	r3, [r3, #0]	@ zero_extendqisi2
 215 0040 1A46     		mov	r2, r3
 216 0042 BB68     		ldr	r3, [r7, #8]
 217 0044 D318     		adds	r3, r2, r3
 218 0046 3A69     		ldr	r2, [r7, #16]
 219 0048 4FEA4202 		lsl	r2, r2, #1
 220 004c 3968     		ldr	r1, [r7, #0]
 221 004e 8A18     		adds	r2, r1, r2
 222 0050 5278     		ldrb	r2, [r2, #1]	@ zero_extendqisi2
 223 0052 1A70     		strb	r2, [r3, #0]
 160:.\Generated_Source\PSoC5/cyfitter_cfg.c **** 			j++;
 224              		.loc 1 160 0
 225 0054 3B69     		ldr	r3, [r7, #16]
 226 0056 03F10103 		add	r3, r3, #1
 227 005a 3B61     		str	r3, [r7, #16]
 161:.\Generated_Source\PSoC5/cyfitter_cfg.c **** 			count--;
 228              		.loc 1 161 0
 229 005c FB7B     		ldrb	r3, [r7, #15]
 230 005e 03F1FF33 		add	r3, r3, #-1
 231 0062 FB73     		strb	r3, [r7, #15]
 232              	.L8:
 157:.\Generated_Source\PSoC5/cyfitter_cfg.c **** 		while (count != 0u)
 233              		.loc 1 157 0 discriminator 1
 234 0064 FB7B     		ldrb	r3, [r7, #15]	@ zero_extendqisi2
 235 0066 002B     		cmp	r3, #0
 236 0068 E4D1     		bne	.L9
 237              	.LBE2:
ARM GAS  C:\Users\gmh5970\AppData\Local\Temp\ccPMdwtb.s 			page 8


 152:.\Generated_Source\PSoC5/cyfitter_cfg.c **** 	for (i = 0u; i < CY_CFG_BASE_ADDR_COUNT; i++)
 238              		.loc 1 152 0
 239 006a 7B69     		ldr	r3, [r7, #20]
 240 006c 03F10103 		add	r3, r3, #1
 241 0070 7B61     		str	r3, [r7, #20]
 242              	.L7:
 152:.\Generated_Source\PSoC5/cyfitter_cfg.c **** 	for (i = 0u; i < CY_CFG_BASE_ADDR_COUNT; i++)
 243              		.loc 1 152 0 is_stmt 0 discriminator 1
 244 0072 7B69     		ldr	r3, [r7, #20]
 245 0074 0B2B     		cmp	r3, #11
 246 0076 CFD9     		bls	.L10
 162:.\Generated_Source\PSoC5/cyfitter_cfg.c **** 		}
 163:.\Generated_Source\PSoC5/cyfitter_cfg.c **** 	}
 164:.\Generated_Source\PSoC5/cyfitter_cfg.c **** }
 247              		.loc 1 164 0 is_stmt 1
 248 0078 07F11C07 		add	r7, r7, #28
 249 007c BD46     		mov	sp, r7
 250 007e 80BC     		pop	{r7}
 251 0080 7047     		bx	lr
 252              		.cfi_endproc
 253              	.LFE4:
 254              		.size	cfg_write_bytes32, .-cfg_write_bytes32
 255 0082 00BF     		.section	.text.ClockSetup,"ax",%progbits
 256              		.align	2
 257              		.thumb
 258              		.thumb_func
 259              		.type	ClockSetup, %function
 260              	ClockSetup:
 261              	.LFB5:
 165:.\Generated_Source\PSoC5/cyfitter_cfg.c **** 
 166:.\Generated_Source\PSoC5/cyfitter_cfg.c **** /*******************************************************************************
 167:.\Generated_Source\PSoC5/cyfitter_cfg.c **** * Function Name: ClockSetup
 168:.\Generated_Source\PSoC5/cyfitter_cfg.c **** ********************************************************************************
 169:.\Generated_Source\PSoC5/cyfitter_cfg.c **** *
 170:.\Generated_Source\PSoC5/cyfitter_cfg.c **** * Summary:
 171:.\Generated_Source\PSoC5/cyfitter_cfg.c **** *  Performs the initialization of all of the clocks in the device based on the
 172:.\Generated_Source\PSoC5/cyfitter_cfg.c **** *  settings in the Clock tab of the DWR.  This includes enabling the requested
 173:.\Generated_Source\PSoC5/cyfitter_cfg.c **** *  clocks and setting the necessary dividers to produce the desired frequency. 
 174:.\Generated_Source\PSoC5/cyfitter_cfg.c **** *
 175:.\Generated_Source\PSoC5/cyfitter_cfg.c **** * Parameters:
 176:.\Generated_Source\PSoC5/cyfitter_cfg.c **** *  void
 177:.\Generated_Source\PSoC5/cyfitter_cfg.c **** *
 178:.\Generated_Source\PSoC5/cyfitter_cfg.c **** * Return:
 179:.\Generated_Source\PSoC5/cyfitter_cfg.c **** *  void
 180:.\Generated_Source\PSoC5/cyfitter_cfg.c **** *
 181:.\Generated_Source\PSoC5/cyfitter_cfg.c **** *******************************************************************************/
 182:.\Generated_Source\PSoC5/cyfitter_cfg.c **** static void ClockSetup(void);
 183:.\Generated_Source\PSoC5/cyfitter_cfg.c **** static void ClockSetup(void)
 184:.\Generated_Source\PSoC5/cyfitter_cfg.c **** {
 262              		.loc 1 184 0
 263              		.cfi_startproc
 264              		@ args = 0, pretend = 0, frame = 8
 265              		@ frame_needed = 1, uses_anonymous_args = 0
 266 0000 80B5     		push	{r7, lr}
 267              	.LCFI15:
 268              		.cfi_def_cfa_offset 8
 269              		.cfi_offset 7, -8
ARM GAS  C:\Users\gmh5970\AppData\Local\Temp\ccPMdwtb.s 			page 9


 270              		.cfi_offset 14, -4
 271 0002 82B0     		sub	sp, sp, #8
 272              	.LCFI16:
 273              		.cfi_def_cfa_offset 16
 274 0004 00AF     		add	r7, sp, #0
 275              	.LCFI17:
 276              		.cfi_def_cfa_register 7
 185:.\Generated_Source\PSoC5/cyfitter_cfg.c **** 	/* CYDEV_CLKDIST_ACFG0_CFG0 Address: CYREG_CLKDIST_ACFG0_CFG0 Size (bytes): 4 */
 186:.\Generated_Source\PSoC5/cyfitter_cfg.c **** 	static const uint8 CYCODE BS_CYDEV_CLKDIST_ACFG0_CFG0_VAL[] = {
 187:.\Generated_Source\PSoC5/cyfitter_cfg.c **** 		0x0Cu, 0x00u, 0x18u, 0x01u};
 188:.\Generated_Source\PSoC5/cyfitter_cfg.c **** 
 189:.\Generated_Source\PSoC5/cyfitter_cfg.c **** 	uint32 timeout;
 190:.\Generated_Source\PSoC5/cyfitter_cfg.c **** 	uint8 pllLock;
 191:.\Generated_Source\PSoC5/cyfitter_cfg.c **** 
 192:.\Generated_Source\PSoC5/cyfitter_cfg.c **** 
 193:.\Generated_Source\PSoC5/cyfitter_cfg.c **** 	/* Configure Digital Clocks based on settings from Clock DWR */
 194:.\Generated_Source\PSoC5/cyfitter_cfg.c **** 	CY_SET_XTND_REG16((void CYFAR *)(CYREG_CLKDIST_DCFG0_CFG0), 0x0003u);
 277              		.loc 1 194 0
 278 0006 4FF48143 		mov	r3, #16512
 279 000a C4F20003 		movt	r3, 16384
 280 000e 4FF00302 		mov	r2, #3
 281 0012 1A80     		strh	r2, [r3, #0]	@ movhi
 195:.\Generated_Source\PSoC5/cyfitter_cfg.c **** 	CY_SET_XTND_REG8((void CYFAR *)(CYREG_CLKDIST_DCFG0_CFG0 + 0x2u), 0x1Bu);
 282              		.loc 1 195 0
 283 0014 44F28203 		movw	r3, #16514
 284 0018 C4F20003 		movt	r3, 16384
 285 001c 4FF01B02 		mov	r2, #27
 286 0020 1A70     		strb	r2, [r3, #0]
 196:.\Generated_Source\PSoC5/cyfitter_cfg.c **** 
 197:.\Generated_Source\PSoC5/cyfitter_cfg.c **** 	/* Configure Analog Clocks based on settings from Clock DWR */
 198:.\Generated_Source\PSoC5/cyfitter_cfg.c **** 	CYCONFIGCPYCODE((void CYFAR *)(CYREG_CLKDIST_ACFG0_CFG0), (const void CYCODE *)(BS_CYDEV_CLKDIST_A
 287              		.loc 1 198 0
 288 0022 4FF48240 		mov	r0, #16640
 289 0026 C4F20000 		movt	r0, 16384
 290 002a 40F20001 		movw	r1, #:lower16:BS_CYDEV_CLKDIST_ACFG0_CFG0_VAL.4790
 291 002e C0F20001 		movt	r1, #:upper16:BS_CYDEV_CLKDIST_ACFG0_CFG0_VAL.4790
 292 0032 4FF00402 		mov	r2, #4
 293 0036 FFF7FEFF 		bl	CYCONFIGCPYCODE
 199:.\Generated_Source\PSoC5/cyfitter_cfg.c **** 
 200:.\Generated_Source\PSoC5/cyfitter_cfg.c **** 	/* Configure ILO based on settings from Clock DWR */
 201:.\Generated_Source\PSoC5/cyfitter_cfg.c **** 	CY_SET_XTND_REG8((void CYFAR *)(CYREG_SLOWCLK_ILO_CR0), 0x02u);
 294              		.loc 1 201 0
 295 003a 4FF48643 		mov	r3, #17152
 296 003e C4F20003 		movt	r3, 16384
 297 0042 4FF00202 		mov	r2, #2
 298 0046 1A70     		strb	r2, [r3, #0]
 202:.\Generated_Source\PSoC5/cyfitter_cfg.c **** 	CY_SET_XTND_REG8((void CYFAR *)(CYREG_CLKDIST_CR), 0x08u);
 299              		.loc 1 202 0
 300 0048 4FF04023 		mov	r3, #1073758208
 301 004c 4FF00802 		mov	r2, #8
 302 0050 1A70     		strb	r2, [r3, #0]
 203:.\Generated_Source\PSoC5/cyfitter_cfg.c **** 
 204:.\Generated_Source\PSoC5/cyfitter_cfg.c **** 	/* Configure IMO based on settings from Clock DWR */
 205:.\Generated_Source\PSoC5/cyfitter_cfg.c **** 	CY_SET_XTND_REG8((void CYFAR *)(CYREG_FASTCLK_IMO_CR), 0x03u);
 303              		.loc 1 205 0
 304 0052 4FF48443 		mov	r3, #16896
 305 0056 C4F20003 		movt	r3, 16384
ARM GAS  C:\Users\gmh5970\AppData\Local\Temp\ccPMdwtb.s 			page 10


 306 005a 4FF00302 		mov	r2, #3
 307 005e 1A70     		strb	r2, [r3, #0]
 206:.\Generated_Source\PSoC5/cyfitter_cfg.c **** 	CY_SET_XTND_REG8((void CYFAR *)(CYREG_IMO_TR1), (CY_GET_XTND_REG8((void CYFAR *)CYREG_FLSHID_CUST_
 308              		.loc 1 206 0
 309 0060 44F2A163 		movw	r3, #18081
 310 0064 C4F20003 		movt	r3, 16384
 311 0068 4FF48472 		mov	r2, #264
 312 006c C4F60012 		movt	r2, 18688
 313 0070 1278     		ldrb	r2, [r2, #0]
 314 0072 D2B2     		uxtb	r2, r2
 315 0074 1A70     		strb	r2, [r3, #0]
 207:.\Generated_Source\PSoC5/cyfitter_cfg.c **** 
 208:.\Generated_Source\PSoC5/cyfitter_cfg.c **** 	/* Configure PLL based on settings from Clock DWR */
 209:.\Generated_Source\PSoC5/cyfitter_cfg.c **** 	CY_SET_XTND_REG16((void CYFAR *)(CYREG_FASTCLK_PLL_P), 0x0008u);
 316              		.loc 1 209 0
 317 0076 44F22223 		movw	r3, #16930
 318 007a C4F20003 		movt	r3, 16384
 319 007e 4FF00802 		mov	r2, #8
 320 0082 1A80     		strh	r2, [r3, #0]	@ movhi
 210:.\Generated_Source\PSoC5/cyfitter_cfg.c **** 	CY_SET_XTND_REG16((void CYFAR *)(CYREG_FASTCLK_PLL_CFG0), 0x1251u);
 321              		.loc 1 210 0
 322 0084 44F22023 		movw	r3, #16928
 323 0088 C4F20003 		movt	r3, 16384
 324 008c 41F25122 		movw	r2, #4689
 325 0090 1A80     		strh	r2, [r3, #0]	@ movhi
 211:.\Generated_Source\PSoC5/cyfitter_cfg.c **** 	/* Wait up to 250us for the PLL to lock */
 212:.\Generated_Source\PSoC5/cyfitter_cfg.c **** 	pllLock = 0u;
 326              		.loc 1 212 0
 327 0092 4FF00003 		mov	r3, #0
 328 0096 FB70     		strb	r3, [r7, #3]
 213:.\Generated_Source\PSoC5/cyfitter_cfg.c **** 	for (timeout = 250u / 10u; (timeout > 0u) && (pllLock != 0x03u); timeout--)
 329              		.loc 1 213 0
 330 0098 4FF01903 		mov	r3, #25
 331 009c 7B60     		str	r3, [r7, #4]
 332 009e 19E0     		b	.L12
 333              	.L14:
 214:.\Generated_Source\PSoC5/cyfitter_cfg.c **** 	{ 
 215:.\Generated_Source\PSoC5/cyfitter_cfg.c **** 		pllLock = 0x03u & ((uint8)((uint8)pllLock << 1) | ((CY_GET_XTND_REG8((void CYFAR *)CYREG_FASTCLK_
 334              		.loc 1 215 0 discriminator 1
 335 00a0 FB78     		ldrb	r3, [r7, #3]
 336 00a2 4FEA4303 		lsl	r3, r3, #1
 337 00a6 DAB2     		uxtb	r2, r3
 338 00a8 44F22523 		movw	r3, #16933
 339 00ac C4F20003 		movt	r3, 16384
 340 00b0 1B78     		ldrb	r3, [r3, #0]
 341 00b2 DBB2     		uxtb	r3, r3
 342 00b4 03F00103 		and	r3, r3, #1
 343 00b8 DBB2     		uxtb	r3, r3
 344 00ba 1343     		orrs	r3, r3, r2
 345 00bc DBB2     		uxtb	r3, r3
 346 00be 03F00303 		and	r3, r3, #3
 347 00c2 FB70     		strb	r3, [r7, #3]
 216:.\Generated_Source\PSoC5/cyfitter_cfg.c **** 		CyDelayCycles(10u * 48u); /* Delay 10us based on 48MHz clock */
 348              		.loc 1 216 0 discriminator 1
 349 00c4 4FF4F070 		mov	r0, #480
 350 00c8 FFF7FEFF 		bl	CyDelayCycles
 213:.\Generated_Source\PSoC5/cyfitter_cfg.c **** 	for (timeout = 250u / 10u; (timeout > 0u) && (pllLock != 0x03u); timeout--)
ARM GAS  C:\Users\gmh5970\AppData\Local\Temp\ccPMdwtb.s 			page 11


 351              		.loc 1 213 0 discriminator 1
 352 00cc 7B68     		ldr	r3, [r7, #4]
 353 00ce 03F1FF33 		add	r3, r3, #-1
 354 00d2 7B60     		str	r3, [r7, #4]
 355              	.L12:
 356 00d4 7B68     		ldr	r3, [r7, #4]
 357 00d6 002B     		cmp	r3, #0
 358 00d8 02D0     		beq	.L13
 213:.\Generated_Source\PSoC5/cyfitter_cfg.c **** 	for (timeout = 250u / 10u; (timeout > 0u) && (pllLock != 0x03u); timeout--)
 359              		.loc 1 213 0 is_stmt 0 discriminator 2
 360 00da FB78     		ldrb	r3, [r7, #3]	@ zero_extendqisi2
 361 00dc 032B     		cmp	r3, #3
 362 00de DFD1     		bne	.L14
 363              	.L13:
 217:.\Generated_Source\PSoC5/cyfitter_cfg.c **** 	}
 218:.\Generated_Source\PSoC5/cyfitter_cfg.c **** 	/* If we ran out of time the PLL didn't lock so go to the error function */
 219:.\Generated_Source\PSoC5/cyfitter_cfg.c **** 	if (timeout == 0u)
 364              		.loc 1 219 0 is_stmt 1
 365 00e0 7B68     		ldr	r3, [r7, #4]
 366 00e2 002B     		cmp	r3, #0
 367 00e4 03D1     		bne	.L15
 220:.\Generated_Source\PSoC5/cyfitter_cfg.c **** 	{
 221:.\Generated_Source\PSoC5/cyfitter_cfg.c **** 		CyClockStartupError(CYCLOCKSTART_PLL_ERROR);
 368              		.loc 1 221 0
 369 00e6 4FF00300 		mov	r0, #3
 370 00ea FFF7FEFF 		bl	CyClockStartupError
 371              	.L15:
 222:.\Generated_Source\PSoC5/cyfitter_cfg.c **** 	}
 223:.\Generated_Source\PSoC5/cyfitter_cfg.c **** 
 224:.\Generated_Source\PSoC5/cyfitter_cfg.c **** 	/* Configure Bus/Master Clock based on settings from Clock DWR */
 225:.\Generated_Source\PSoC5/cyfitter_cfg.c **** 	CY_SET_XTND_REG16((void CYFAR *)(CYREG_CLKDIST_MSTR0), 0x0100u);
 372              		.loc 1 225 0
 373 00ee 44F20403 		movw	r3, #16388
 374 00f2 C4F20003 		movt	r3, 16384
 375 00f6 4FF48072 		mov	r2, #256
 376 00fa 1A80     		strh	r2, [r3, #0]	@ movhi
 226:.\Generated_Source\PSoC5/cyfitter_cfg.c **** 	CY_SET_XTND_REG8((void CYFAR *)(CYREG_CLKDIST_MSTR0), 0x07u);
 377              		.loc 1 226 0
 378 00fc 44F20403 		movw	r3, #16388
 379 0100 C4F20003 		movt	r3, 16384
 380 0104 4FF00702 		mov	r2, #7
 381 0108 1A70     		strb	r2, [r3, #0]
 227:.\Generated_Source\PSoC5/cyfitter_cfg.c **** 	CY_SET_XTND_REG8((void CYFAR *)(CYREG_CLKDIST_BCFG0), 0x00u);
 382              		.loc 1 227 0
 383 010a 44F20603 		movw	r3, #16390
 384 010e C4F20003 		movt	r3, 16384
 385 0112 4FF00002 		mov	r2, #0
 386 0116 1A70     		strb	r2, [r3, #0]
 228:.\Generated_Source\PSoC5/cyfitter_cfg.c **** 	CY_SET_XTND_REG8((void CYFAR *)(CYREG_CLKDIST_BCFG2), 0x48u);
 387              		.loc 1 228 0
 388 0118 44F20803 		movw	r3, #16392
 389 011c C4F20003 		movt	r3, 16384
 390 0120 4FF04802 		mov	r2, #72
 391 0124 1A70     		strb	r2, [r3, #0]
 229:.\Generated_Source\PSoC5/cyfitter_cfg.c **** 	CY_SET_XTND_REG8((void CYFAR *)(CYREG_CLKDIST_MSTR0), 0x00u);
 392              		.loc 1 229 0
 393 0126 44F20403 		movw	r3, #16388
ARM GAS  C:\Users\gmh5970\AppData\Local\Temp\ccPMdwtb.s 			page 12


 394 012a C4F20003 		movt	r3, 16384
 395 012e 4FF00002 		mov	r2, #0
 396 0132 1A70     		strb	r2, [r3, #0]
 230:.\Generated_Source\PSoC5/cyfitter_cfg.c **** 	CY_SET_XTND_REG8((void CYFAR *)(CYREG_CLKDIST_LD), 0x02u);
 397              		.loc 1 230 0
 398 0134 44F20103 		movw	r3, #16385
 399 0138 C4F20003 		movt	r3, 16384
 400 013c 4FF00202 		mov	r2, #2
 401 0140 1A70     		strb	r2, [r3, #0]
 231:.\Generated_Source\PSoC5/cyfitter_cfg.c **** 	CY_SET_XTND_REG8((void CYFAR *)(CYREG_CLKDIST_DLY1), 0x04u);
 402              		.loc 1 231 0
 403 0142 44F20B03 		movw	r3, #16395
 404 0146 C4F20003 		movt	r3, 16384
 405 014a 4FF00402 		mov	r2, #4
 406 014e 1A70     		strb	r2, [r3, #0]
 232:.\Generated_Source\PSoC5/cyfitter_cfg.c **** 
 233:.\Generated_Source\PSoC5/cyfitter_cfg.c **** 	CY_SET_XTND_REG8((void CYFAR *)(CYREG_PM_ACT_CFG2), ((CY_GET_XTND_REG8((void CYFAR *)CYREG_PM_ACT_
 407              		.loc 1 233 0
 408 0150 44F2A233 		movw	r3, #17314
 409 0154 C4F20003 		movt	r3, 16384
 410 0158 44F2A232 		movw	r2, #17314
 411 015c C4F20002 		movt	r2, 16384
 412 0160 1278     		ldrb	r2, [r2, #0]
 413 0162 D2B2     		uxtb	r2, r2
 414 0164 42F00102 		orr	r2, r2, #1
 415 0168 D2B2     		uxtb	r2, r2
 416 016a 1A70     		strb	r2, [r3, #0]
 234:.\Generated_Source\PSoC5/cyfitter_cfg.c **** 	CY_SET_XTND_REG8((void CYFAR *)(CYREG_PM_ACT_CFG1), ((CY_GET_XTND_REG8((void CYFAR *)CYREG_PM_ACT_
 417              		.loc 1 234 0
 418 016c 44F2A133 		movw	r3, #17313
 419 0170 C4F20003 		movt	r3, 16384
 420 0174 44F2A132 		movw	r2, #17313
 421 0178 C4F20002 		movt	r2, 16384
 422 017c 1278     		ldrb	r2, [r2, #0]
 423 017e D2B2     		uxtb	r2, r2
 424 0180 42F00102 		orr	r2, r2, #1
 425 0184 D2B2     		uxtb	r2, r2
 426 0186 1A70     		strb	r2, [r3, #0]
 235:.\Generated_Source\PSoC5/cyfitter_cfg.c **** 	CY_SET_XTND_REG8((void CYFAR *)(CYREG_PM_ACT_CFG0), ((CY_GET_XTND_REG8((void CYFAR *)CYREG_PM_ACT_
 427              		.loc 1 235 0
 428 0188 44F2A033 		movw	r3, #17312
 429 018c C4F20003 		movt	r3, 16384
 430 0190 44F2A032 		movw	r2, #17312
 431 0194 C4F20002 		movt	r2, 16384
 432 0198 1278     		ldrb	r2, [r2, #0]
 433 019a D2B2     		uxtb	r2, r2
 434 019c 62F07F02 		orn	r2, r2, #127
 435 01a0 D2B2     		uxtb	r2, r2
 436 01a2 1A70     		strb	r2, [r3, #0]
 236:.\Generated_Source\PSoC5/cyfitter_cfg.c **** }
 437              		.loc 1 236 0
 438 01a4 07F10807 		add	r7, r7, #8
 439 01a8 BD46     		mov	sp, r7
 440 01aa 80BD     		pop	{r7, pc}
 441              		.cfi_endproc
 442              	.LFE5:
 443              		.size	ClockSetup, .-ClockSetup
ARM GAS  C:\Users\gmh5970\AppData\Local\Temp\ccPMdwtb.s 			page 13


 444              		.section	.text.AnalogSetDefault,"ax",%progbits
 445              		.align	2
 446              		.thumb
 447              		.thumb_func
 448              		.type	AnalogSetDefault, %function
 449              	AnalogSetDefault:
 450              	.LFB6:
 237:.\Generated_Source\PSoC5/cyfitter_cfg.c **** 
 238:.\Generated_Source\PSoC5/cyfitter_cfg.c **** 
 239:.\Generated_Source\PSoC5/cyfitter_cfg.c **** /* Analog API Functions */
 240:.\Generated_Source\PSoC5/cyfitter_cfg.c **** 
 241:.\Generated_Source\PSoC5/cyfitter_cfg.c **** 
 242:.\Generated_Source\PSoC5/cyfitter_cfg.c **** /*******************************************************************************
 243:.\Generated_Source\PSoC5/cyfitter_cfg.c **** * Function Name: AnalogSetDefault
 244:.\Generated_Source\PSoC5/cyfitter_cfg.c **** ********************************************************************************
 245:.\Generated_Source\PSoC5/cyfitter_cfg.c **** *
 246:.\Generated_Source\PSoC5/cyfitter_cfg.c **** * Summary:
 247:.\Generated_Source\PSoC5/cyfitter_cfg.c **** *  Sets up the analog portions of the chip to default values based on chip
 248:.\Generated_Source\PSoC5/cyfitter_cfg.c **** *  configuration options from the project.
 249:.\Generated_Source\PSoC5/cyfitter_cfg.c **** *
 250:.\Generated_Source\PSoC5/cyfitter_cfg.c **** * Parameters:
 251:.\Generated_Source\PSoC5/cyfitter_cfg.c **** *  void
 252:.\Generated_Source\PSoC5/cyfitter_cfg.c **** *
 253:.\Generated_Source\PSoC5/cyfitter_cfg.c **** * Return:
 254:.\Generated_Source\PSoC5/cyfitter_cfg.c **** *  void
 255:.\Generated_Source\PSoC5/cyfitter_cfg.c **** *
 256:.\Generated_Source\PSoC5/cyfitter_cfg.c **** *******************************************************************************/
 257:.\Generated_Source\PSoC5/cyfitter_cfg.c **** static void AnalogSetDefault(void);
 258:.\Generated_Source\PSoC5/cyfitter_cfg.c **** static void AnalogSetDefault(void)
 259:.\Generated_Source\PSoC5/cyfitter_cfg.c **** {
 451              		.loc 1 259 0
 452              		.cfi_startproc
 453              		@ args = 0, pretend = 0, frame = 8
 454              		@ frame_needed = 1, uses_anonymous_args = 0
 455              		@ link register save eliminated.
 456 0000 80B4     		push	{r7}
 457              	.LCFI18:
 458              		.cfi_def_cfa_offset 4
 459              		.cfi_offset 7, -4
 460 0002 83B0     		sub	sp, sp, #12
 461              	.LCFI19:
 462              		.cfi_def_cfa_offset 16
 463 0004 00AF     		add	r7, sp, #0
 464              	.LCFI20:
 465              		.cfi_def_cfa_register 7
 260:.\Generated_Source\PSoC5/cyfitter_cfg.c **** 	uint8 bg_xover_inl_trim = CY_GET_XTND_REG8((void CYFAR *)(CYREG_FLSHID_MFG_CFG_BG_XOVER_INL_TRIM +
 466              		.loc 1 260 0
 467 0006 40F2CF13 		movw	r3, #463
 468 000a C4F60013 		movt	r3, 18688
 469 000e 1B78     		ldrb	r3, [r3, #0]
 470 0010 FB71     		strb	r3, [r7, #7]
 261:.\Generated_Source\PSoC5/cyfitter_cfg.c **** 	uint8 cr4 = CY_GET_XTND_REG8((void CYFAR *)(CYREG_RESET_CR4));
 471              		.loc 1 261 0
 472 0012 44F2F863 		movw	r3, #18168
 473 0016 C4F20003 		movt	r3, 16384
 474 001a 1B78     		ldrb	r3, [r3, #0]
 475 001c BB71     		strb	r3, [r7, #6]
ARM GAS  C:\Users\gmh5970\AppData\Local\Temp\ccPMdwtb.s 			page 14


 262:.\Generated_Source\PSoC5/cyfitter_cfg.c **** 	uint8 cr5 = CY_GET_XTND_REG8((void CYFAR *)(CYREG_RESET_CR5));
 476              		.loc 1 262 0
 477 001e 44F2F963 		movw	r3, #18169
 478 0022 C4F20003 		movt	r3, 16384
 479 0026 1B78     		ldrb	r3, [r3, #0]
 480 0028 7B71     		strb	r3, [r7, #5]
 263:.\Generated_Source\PSoC5/cyfitter_cfg.c **** 	CY_SET_XTND_REG8((void CYFAR *)(CYREG_BG_DFT0), (bg_xover_inl_trim & 0x07u));
 481              		.loc 1 263 0
 482 002a 45F66E03 		movw	r3, #22638
 483 002e C4F20003 		movt	r3, 16384
 484 0032 FA79     		ldrb	r2, [r7, #7]
 485 0034 02F00702 		and	r2, r2, #7
 486 0038 D2B2     		uxtb	r2, r2
 487 003a 1A70     		strb	r2, [r3, #0]
 264:.\Generated_Source\PSoC5/cyfitter_cfg.c **** 	CY_SET_XTND_REG8((void CYFAR *)(CYREG_BG_DFT1), ((bg_xover_inl_trim >> 4) & 0x0Fu));
 488              		.loc 1 264 0
 489 003c 45F66F03 		movw	r3, #22639
 490 0040 C4F20003 		movt	r3, 16384
 491 0044 FA79     		ldrb	r2, [r7, #7]	@ zero_extendqisi2
 492 0046 4FEA1212 		lsr	r2, r2, #4
 493 004a D2B2     		uxtb	r2, r2
 494 004c 1A70     		strb	r2, [r3, #0]
 265:.\Generated_Source\PSoC5/cyfitter_cfg.c **** 	/* Disable PRES while setting up SAR voltage reference */
 266:.\Generated_Source\PSoC5/cyfitter_cfg.c **** 	CY_SET_XTND_REG8((void CYFAR *)(CYREG_RESET_CR4), (cr4 | 0x03u));
 495              		.loc 1 266 0
 496 004e 44F2F863 		movw	r3, #18168
 497 0052 C4F20003 		movt	r3, 16384
 498 0056 BA79     		ldrb	r2, [r7, #6]
 499 0058 42F00302 		orr	r2, r2, #3
 500 005c D2B2     		uxtb	r2, r2
 501 005e 1A70     		strb	r2, [r3, #0]
 267:.\Generated_Source\PSoC5/cyfitter_cfg.c **** 	CY_SET_XTND_REG8((void CYFAR *)(CYREG_RESET_CR5), (cr5 | 0x03u));
 502              		.loc 1 267 0
 503 0060 44F2F963 		movw	r3, #18169
 504 0064 C4F20003 		movt	r3, 16384
 505 0068 7A79     		ldrb	r2, [r7, #5]
 506 006a 42F00302 		orr	r2, r2, #3
 507 006e D2B2     		uxtb	r2, r2
 508 0070 1A70     		strb	r2, [r3, #0]
 268:.\Generated_Source\PSoC5/cyfitter_cfg.c **** 	CY_SET_XTND_REG8((void CYFAR *)CYREG_PRT6_AG, 0x20u);
 509              		.loc 1 268 0
 510 0072 45F26D13 		movw	r3, #20845
 511 0076 C4F20003 		movt	r3, 16384
 512 007a 4FF02002 		mov	r2, #32
 513 007e 1A70     		strb	r2, [r3, #0]
 269:.\Generated_Source\PSoC5/cyfitter_cfg.c **** 	CY_SET_XTND_REG8((void CYFAR *)CYREG_SAR0_CSR1, 0x40u);
 514              		.loc 1 269 0
 515 0080 45F60113 		movw	r3, #22785
 516 0084 C4F20003 		movt	r3, 16384
 517 0088 4FF04002 		mov	r2, #64
 518 008c 1A70     		strb	r2, [r3, #0]
 270:.\Generated_Source\PSoC5/cyfitter_cfg.c **** 	CY_SET_XTND_REG8((void CYFAR *)CYREG_SAR0_CSR3, 0x40u);
 519              		.loc 1 270 0
 520 008e 45F60313 		movw	r3, #22787
 521 0092 C4F20003 		movt	r3, 16384
 522 0096 4FF04002 		mov	r2, #64
 523 009a 1A70     		strb	r2, [r3, #0]
ARM GAS  C:\Users\gmh5970\AppData\Local\Temp\ccPMdwtb.s 			page 15


 271:.\Generated_Source\PSoC5/cyfitter_cfg.c **** 	CY_SET_XTND_REG8((void CYFAR *)CYREG_SAR0_SW0, 0x02u);
 524              		.loc 1 271 0
 525 009c 45F62033 		movw	r3, #23328
 526 00a0 C4F20003 		movt	r3, 16384
 527 00a4 4FF00202 		mov	r2, #2
 528 00a8 1A70     		strb	r2, [r3, #0]
 272:.\Generated_Source\PSoC5/cyfitter_cfg.c **** 	CY_SET_XTND_REG8((void CYFAR *)CYREG_SAR0_SW3, 0x20u);
 529              		.loc 1 272 0
 530 00aa 45F62333 		movw	r3, #23331
 531 00ae C4F20003 		movt	r3, 16384
 532 00b2 4FF02002 		mov	r2, #32
 533 00b6 1A70     		strb	r2, [r3, #0]
 273:.\Generated_Source\PSoC5/cyfitter_cfg.c **** 	CY_SET_XTND_REG8((void CYFAR *)(CYREG_RESET_CR5), (cr5));
 534              		.loc 1 273 0
 535 00b8 44F2F963 		movw	r3, #18169
 536 00bc C4F20003 		movt	r3, 16384
 537 00c0 7A79     		ldrb	r2, [r7, #5]
 538 00c2 1A70     		strb	r2, [r3, #0]
 274:.\Generated_Source\PSoC5/cyfitter_cfg.c **** 	CY_SET_XTND_REG8((void CYFAR *)(CYREG_RESET_CR4), (cr4));
 539              		.loc 1 274 0
 540 00c4 44F2F863 		movw	r3, #18168
 541 00c8 C4F20003 		movt	r3, 16384
 542 00cc BA79     		ldrb	r2, [r7, #6]
 543 00ce 1A70     		strb	r2, [r3, #0]
 275:.\Generated_Source\PSoC5/cyfitter_cfg.c **** 	CY_SET_XTND_REG8((void CYFAR *)CYREG_PUMP_CR0, 0x44u);
 544              		.loc 1 275 0
 545 00d0 45F67603 		movw	r3, #22646
 546 00d4 C4F20003 		movt	r3, 16384
 547 00d8 4FF04402 		mov	r2, #68
 548 00dc 1A70     		strb	r2, [r3, #0]
 276:.\Generated_Source\PSoC5/cyfitter_cfg.c **** }
 549              		.loc 1 276 0
 550 00de 07F10C07 		add	r7, r7, #12
 551 00e2 BD46     		mov	sp, r7
 552 00e4 80BC     		pop	{r7}
 553 00e6 7047     		bx	lr
 554              		.cfi_endproc
 555              	.LFE6:
 556              		.size	AnalogSetDefault, .-AnalogSetDefault
 557              		.section	.text.SetAnalogRoutingPumps,"ax",%progbits
 558              		.align	2
 559              		.global	SetAnalogRoutingPumps
 560              		.thumb
 561              		.thumb_func
 562              		.type	SetAnalogRoutingPumps, %function
 563              	SetAnalogRoutingPumps:
 564              	.LFB7:
 277:.\Generated_Source\PSoC5/cyfitter_cfg.c **** 
 278:.\Generated_Source\PSoC5/cyfitter_cfg.c **** 
 279:.\Generated_Source\PSoC5/cyfitter_cfg.c **** /*******************************************************************************
 280:.\Generated_Source\PSoC5/cyfitter_cfg.c **** * Function Name: SetAnalogRoutingPumps
 281:.\Generated_Source\PSoC5/cyfitter_cfg.c **** ********************************************************************************
 282:.\Generated_Source\PSoC5/cyfitter_cfg.c **** *
 283:.\Generated_Source\PSoC5/cyfitter_cfg.c **** * Summary:
 284:.\Generated_Source\PSoC5/cyfitter_cfg.c **** * Enables or disables the analog pumps feeding analog routing switches.
 285:.\Generated_Source\PSoC5/cyfitter_cfg.c **** * Intended to be called at startup, based on the Vdda system configuration;
 286:.\Generated_Source\PSoC5/cyfitter_cfg.c **** * may be called during operation when the user informs us that the Vdda voltage
ARM GAS  C:\Users\gmh5970\AppData\Local\Temp\ccPMdwtb.s 			page 16


 287:.\Generated_Source\PSoC5/cyfitter_cfg.c **** * crossed the pump threshold.
 288:.\Generated_Source\PSoC5/cyfitter_cfg.c **** *
 289:.\Generated_Source\PSoC5/cyfitter_cfg.c **** * Parameters:
 290:.\Generated_Source\PSoC5/cyfitter_cfg.c **** *  enabled - 1 to enable the pumps, 0 to disable the pumps
 291:.\Generated_Source\PSoC5/cyfitter_cfg.c **** *
 292:.\Generated_Source\PSoC5/cyfitter_cfg.c **** * Return:
 293:.\Generated_Source\PSoC5/cyfitter_cfg.c **** *  void
 294:.\Generated_Source\PSoC5/cyfitter_cfg.c **** *
 295:.\Generated_Source\PSoC5/cyfitter_cfg.c **** *******************************************************************************/
 296:.\Generated_Source\PSoC5/cyfitter_cfg.c **** void SetAnalogRoutingPumps(uint8 enabled)
 297:.\Generated_Source\PSoC5/cyfitter_cfg.c **** {
 565              		.loc 1 297 0
 566              		.cfi_startproc
 567              		@ args = 0, pretend = 0, frame = 16
 568              		@ frame_needed = 1, uses_anonymous_args = 0
 569              		@ link register save eliminated.
 570 0000 80B4     		push	{r7}
 571              	.LCFI21:
 572              		.cfi_def_cfa_offset 4
 573              		.cfi_offset 7, -4
 574 0002 85B0     		sub	sp, sp, #20
 575              	.LCFI22:
 576              		.cfi_def_cfa_offset 24
 577 0004 00AF     		add	r7, sp, #0
 578              	.LCFI23:
 579              		.cfi_def_cfa_register 7
 580 0006 0346     		mov	r3, r0
 581 0008 FB71     		strb	r3, [r7, #7]
 298:.\Generated_Source\PSoC5/cyfitter_cfg.c **** 	uint8 regValue = CY_GET_XTND_REG8((void CYFAR *)CYREG_PUMP_CR0);
 582              		.loc 1 298 0
 583 000a 45F67603 		movw	r3, #22646
 584 000e C4F20003 		movt	r3, 16384
 585 0012 1B78     		ldrb	r3, [r3, #0]
 586 0014 FB73     		strb	r3, [r7, #15]
 299:.\Generated_Source\PSoC5/cyfitter_cfg.c **** 	if (enabled != 0u)
 587              		.loc 1 299 0
 588 0016 FB79     		ldrb	r3, [r7, #7]	@ zero_extendqisi2
 589 0018 002B     		cmp	r3, #0
 590 001a 04D0     		beq	.L18
 300:.\Generated_Source\PSoC5/cyfitter_cfg.c **** 	{
 301:.\Generated_Source\PSoC5/cyfitter_cfg.c **** 		regValue |= 0x22u;
 591              		.loc 1 301 0
 592 001c FB7B     		ldrb	r3, [r7, #15]
 593 001e 43F02203 		orr	r3, r3, #34
 594 0022 FB73     		strb	r3, [r7, #15]
 595 0024 03E0     		b	.L19
 596              	.L18:
 302:.\Generated_Source\PSoC5/cyfitter_cfg.c **** 	}
 303:.\Generated_Source\PSoC5/cyfitter_cfg.c **** 	else
 304:.\Generated_Source\PSoC5/cyfitter_cfg.c **** 	{
 305:.\Generated_Source\PSoC5/cyfitter_cfg.c **** 		regValue &= (uint8)~0x22u;
 597              		.loc 1 305 0
 598 0026 FB7B     		ldrb	r3, [r7, #15]
 599 0028 23F02203 		bic	r3, r3, #34
 600 002c FB73     		strb	r3, [r7, #15]
 601              	.L19:
 306:.\Generated_Source\PSoC5/cyfitter_cfg.c **** 	}
ARM GAS  C:\Users\gmh5970\AppData\Local\Temp\ccPMdwtb.s 			page 17


 307:.\Generated_Source\PSoC5/cyfitter_cfg.c **** 	CY_SET_XTND_REG8((void CYFAR *)CYREG_PUMP_CR0, regValue);
 602              		.loc 1 307 0
 603 002e 45F67603 		movw	r3, #22646
 604 0032 C4F20003 		movt	r3, 16384
 605 0036 FA7B     		ldrb	r2, [r7, #15]
 606 0038 1A70     		strb	r2, [r3, #0]
 308:.\Generated_Source\PSoC5/cyfitter_cfg.c **** }
 607              		.loc 1 308 0
 608 003a 07F11407 		add	r7, r7, #20
 609 003e BD46     		mov	sp, r7
 610 0040 80BC     		pop	{r7}
 611 0042 7047     		bx	lr
 612              		.cfi_endproc
 613              	.LFE7:
 614              		.size	SetAnalogRoutingPumps, .-SetAnalogRoutingPumps
 615              		.section	.text.cyfitter_cfg,"ax",%progbits
 616              		.align	2
 617              		.global	cyfitter_cfg
 618              		.thumb
 619              		.thumb_func
 620              		.type	cyfitter_cfg, %function
 621              	cyfitter_cfg:
 622              	.LFB8:
 309:.\Generated_Source\PSoC5/cyfitter_cfg.c **** 
 310:.\Generated_Source\PSoC5/cyfitter_cfg.c **** #define CY_AMUX_UNUSED CYREG_BOOST_SR
 311:.\Generated_Source\PSoC5/cyfitter_cfg.c **** 
 312:.\Generated_Source\PSoC5/cyfitter_cfg.c **** 
 313:.\Generated_Source\PSoC5/cyfitter_cfg.c **** /*******************************************************************************
 314:.\Generated_Source\PSoC5/cyfitter_cfg.c **** * Function Name: cyfitter_cfg
 315:.\Generated_Source\PSoC5/cyfitter_cfg.c **** ********************************************************************************
 316:.\Generated_Source\PSoC5/cyfitter_cfg.c **** * Summary:
 317:.\Generated_Source\PSoC5/cyfitter_cfg.c **** *  This function is called by the start-up code for the selected device. It
 318:.\Generated_Source\PSoC5/cyfitter_cfg.c **** *  performs all of the necessary device configuration based on the design
 319:.\Generated_Source\PSoC5/cyfitter_cfg.c **** *  settings.  This includes settings from the Design Wide Resources (DWR) such
 320:.\Generated_Source\PSoC5/cyfitter_cfg.c **** *  as Clocks and Pins as well as any component configuration that is necessary.
 321:.\Generated_Source\PSoC5/cyfitter_cfg.c **** *
 322:.\Generated_Source\PSoC5/cyfitter_cfg.c **** * Parameters:  
 323:.\Generated_Source\PSoC5/cyfitter_cfg.c **** *   void
 324:.\Generated_Source\PSoC5/cyfitter_cfg.c **** *
 325:.\Generated_Source\PSoC5/cyfitter_cfg.c **** * Return:
 326:.\Generated_Source\PSoC5/cyfitter_cfg.c **** *   void
 327:.\Generated_Source\PSoC5/cyfitter_cfg.c **** *
 328:.\Generated_Source\PSoC5/cyfitter_cfg.c **** *******************************************************************************/
 329:.\Generated_Source\PSoC5/cyfitter_cfg.c **** 
 330:.\Generated_Source\PSoC5/cyfitter_cfg.c **** void cyfitter_cfg(void)
 331:.\Generated_Source\PSoC5/cyfitter_cfg.c **** {
 623              		.loc 1 331 0
 624              		.cfi_startproc
 625              		@ args = 0, pretend = 0, frame = 8
 626              		@ frame_needed = 1, uses_anonymous_args = 0
 627 0000 80B5     		push	{r7, lr}
 628              	.LCFI24:
 629              		.cfi_def_cfa_offset 8
 630              		.cfi_offset 7, -8
 631              		.cfi_offset 14, -4
 632 0002 82B0     		sub	sp, sp, #8
 633              	.LCFI25:
ARM GAS  C:\Users\gmh5970\AppData\Local\Temp\ccPMdwtb.s 			page 18


 634              		.cfi_def_cfa_offset 16
 635 0004 00AF     		add	r7, sp, #0
 636              	.LCFI26:
 637              		.cfi_def_cfa_register 7
 332:.\Generated_Source\PSoC5/cyfitter_cfg.c **** 	/* IOPINS0_0 Address: CYREG_PRT0_DM0 Size (bytes): 8 */
 333:.\Generated_Source\PSoC5/cyfitter_cfg.c **** 	static const uint8 CYCODE BS_IOPINS0_0_VAL[] = {
 334:.\Generated_Source\PSoC5/cyfitter_cfg.c **** 		0x00u, 0x01u, 0x01u, 0x00u, 0x01u, 0x00u, 0x00u, 0x00u};
 335:.\Generated_Source\PSoC5/cyfitter_cfg.c **** 
 336:.\Generated_Source\PSoC5/cyfitter_cfg.c **** 	/* IOPINS0_2 Address: CYREG_PRT2_DM0 Size (bytes): 8 */
 337:.\Generated_Source\PSoC5/cyfitter_cfg.c **** 	static const uint8 CYCODE BS_IOPINS0_2_VAL[] = {
 338:.\Generated_Source\PSoC5/cyfitter_cfg.c **** 		0x00u, 0x7Fu, 0x7Fu, 0x00u, 0x00u, 0x00u, 0x00u, 0x00u};
 339:.\Generated_Source\PSoC5/cyfitter_cfg.c **** 
 340:.\Generated_Source\PSoC5/cyfitter_cfg.c **** 	/* IOPINS0_6 Address: CYREG_PRT6_DM0 Size (bytes): 8 */
 341:.\Generated_Source\PSoC5/cyfitter_cfg.c **** 	static const uint8 CYCODE BS_IOPINS0_6_VAL[] = {
 342:.\Generated_Source\PSoC5/cyfitter_cfg.c **** 		0x00u, 0x00u, 0x00u, 0x00u, 0x00u, 0x00u, 0x20u, 0x00u};
 343:.\Generated_Source\PSoC5/cyfitter_cfg.c **** 
 344:.\Generated_Source\PSoC5/cyfitter_cfg.c **** #ifdef CYGlobalIntDisable
 345:.\Generated_Source\PSoC5/cyfitter_cfg.c **** 	/* Disable interrupts by default. Let user enable if/when they want. */
 346:.\Generated_Source\PSoC5/cyfitter_cfg.c **** 	CYGlobalIntDisable
 638              		.loc 1 346 0
 639              	@ 346 ".\Generated_Source\PSoC5\cyfitter_cfg.c" 1
 640 0006 72B6     		CPSID   i
 641              	@ 0 "" 2
 347:.\Generated_Source\PSoC5/cyfitter_cfg.c **** #endif
 348:.\Generated_Source\PSoC5/cyfitter_cfg.c **** 
 349:.\Generated_Source\PSoC5/cyfitter_cfg.c **** 	/* Enable/Disable Debug functionality based on settings from System DWR */
 350:.\Generated_Source\PSoC5/cyfitter_cfg.c **** 	CY_SET_XTND_REG8((void CYFAR *)CYREG_MLOGIC_DEBUG, (CY_GET_XTND_REG8((void CYFAR *)CYREG_MLOGIC_DE
 642              		.loc 1 350 0
 643              		.thumb
 644 0008 44F2E863 		movw	r3, #18152
 645 000c C4F20003 		movt	r3, 16384
 646 0010 44F2E862 		movw	r2, #18152
 647 0014 C4F20002 		movt	r2, 16384
 648 0018 1278     		ldrb	r2, [r2, #0]
 649 001a D2B2     		uxtb	r2, r2
 650 001c 42F00402 		orr	r2, r2, #4
 651 0020 D2B2     		uxtb	r2, r2
 652 0022 1A70     		strb	r2, [r3, #0]
 653              	.LBB3:
 351:.\Generated_Source\PSoC5/cyfitter_cfg.c **** 
 352:.\Generated_Source\PSoC5/cyfitter_cfg.c **** 	{
 353:.\Generated_Source\PSoC5/cyfitter_cfg.c **** 		static const uint32 CYCODE cy_cfg_addr_table[] = {
 354:.\Generated_Source\PSoC5/cyfitter_cfg.c **** 			0x40004F01u, /* Base address: 0x40004F00 Count: 1 */
 355:.\Generated_Source\PSoC5/cyfitter_cfg.c **** 			0x40010701u, /* Base address: 0x40010700 Count: 1 */
 356:.\Generated_Source\PSoC5/cyfitter_cfg.c **** 			0x40010902u, /* Base address: 0x40010900 Count: 2 */
 357:.\Generated_Source\PSoC5/cyfitter_cfg.c **** 			0x40010A04u, /* Base address: 0x40010A00 Count: 4 */
 358:.\Generated_Source\PSoC5/cyfitter_cfg.c **** 			0x40010B01u, /* Base address: 0x40010B00 Count: 1 */
 359:.\Generated_Source\PSoC5/cyfitter_cfg.c **** 			0x40014002u, /* Base address: 0x40014000 Count: 2 */
 360:.\Generated_Source\PSoC5/cyfitter_cfg.c **** 			0x40014103u, /* Base address: 0x40014100 Count: 3 */
 361:.\Generated_Source\PSoC5/cyfitter_cfg.c **** 			0x40014203u, /* Base address: 0x40014200 Count: 3 */
 362:.\Generated_Source\PSoC5/cyfitter_cfg.c **** 			0x40014306u, /* Base address: 0x40014300 Count: 6 */
 363:.\Generated_Source\PSoC5/cyfitter_cfg.c **** 			0x40014602u, /* Base address: 0x40014600 Count: 2 */
 364:.\Generated_Source\PSoC5/cyfitter_cfg.c **** 			0x40014701u, /* Base address: 0x40014700 Count: 1 */
 365:.\Generated_Source\PSoC5/cyfitter_cfg.c **** 			0x40015101u, /* Base address: 0x40015100 Count: 1 */
 366:.\Generated_Source\PSoC5/cyfitter_cfg.c **** 		};
 367:.\Generated_Source\PSoC5/cyfitter_cfg.c **** 
 368:.\Generated_Source\PSoC5/cyfitter_cfg.c **** 		static const cy_cfg_addrvalue_t CYCODE cy_cfg_data_table[] = {
ARM GAS  C:\Users\gmh5970\AppData\Local\Temp\ccPMdwtb.s 			page 19


 369:.\Generated_Source\PSoC5/cyfitter_cfg.c **** 			{0x0Au, 0x4Bu},
 370:.\Generated_Source\PSoC5/cyfitter_cfg.c **** 			{0xEEu, 0x0Cu},
 371:.\Generated_Source\PSoC5/cyfitter_cfg.c **** 			{0xAFu, 0x20u},
 372:.\Generated_Source\PSoC5/cyfitter_cfg.c **** 			{0xEEu, 0x04u},
 373:.\Generated_Source\PSoC5/cyfitter_cfg.c **** 			{0xB8u, 0x20u},
 374:.\Generated_Source\PSoC5/cyfitter_cfg.c **** 			{0xBEu, 0x10u},
 375:.\Generated_Source\PSoC5/cyfitter_cfg.c **** 			{0xD8u, 0x04u},
 376:.\Generated_Source\PSoC5/cyfitter_cfg.c **** 			{0xDFu, 0x01u},
 377:.\Generated_Source\PSoC5/cyfitter_cfg.c **** 			{0x1Fu, 0x20u},
 378:.\Generated_Source\PSoC5/cyfitter_cfg.c **** 			{0x33u, 0x20u},
 379:.\Generated_Source\PSoC5/cyfitter_cfg.c **** 			{0xCCu, 0x10u},
 380:.\Generated_Source\PSoC5/cyfitter_cfg.c **** 			{0x53u, 0x08u},
 381:.\Generated_Source\PSoC5/cyfitter_cfg.c **** 			{0xA7u, 0x20u},
 382:.\Generated_Source\PSoC5/cyfitter_cfg.c **** 			{0xD4u, 0x20u},
 383:.\Generated_Source\PSoC5/cyfitter_cfg.c **** 			{0x63u, 0x02u},
 384:.\Generated_Source\PSoC5/cyfitter_cfg.c **** 			{0xA7u, 0x28u},
 385:.\Generated_Source\PSoC5/cyfitter_cfg.c **** 			{0xD6u, 0x40u},
 386:.\Generated_Source\PSoC5/cyfitter_cfg.c **** 			{0x1Bu, 0x08u},
 387:.\Generated_Source\PSoC5/cyfitter_cfg.c **** 			{0xA7u, 0x08u},
 388:.\Generated_Source\PSoC5/cyfitter_cfg.c **** 			{0xABu, 0x20u},
 389:.\Generated_Source\PSoC5/cyfitter_cfg.c **** 			{0xAFu, 0x01u},
 390:.\Generated_Source\PSoC5/cyfitter_cfg.c **** 			{0xC6u, 0x10u},
 391:.\Generated_Source\PSoC5/cyfitter_cfg.c **** 			{0xEEu, 0x30u},
 392:.\Generated_Source\PSoC5/cyfitter_cfg.c **** 			{0x1Bu, 0x04u},
 393:.\Generated_Source\PSoC5/cyfitter_cfg.c **** 			{0xC6u, 0x08u},
 394:.\Generated_Source\PSoC5/cyfitter_cfg.c **** 			{0xABu, 0x04u},
 395:.\Generated_Source\PSoC5/cyfitter_cfg.c **** 			{0x00u, 0x03u},
 396:.\Generated_Source\PSoC5/cyfitter_cfg.c **** 		};
 397:.\Generated_Source\PSoC5/cyfitter_cfg.c **** 
 398:.\Generated_Source\PSoC5/cyfitter_cfg.c **** 
 399:.\Generated_Source\PSoC5/cyfitter_cfg.c **** 
 400:.\Generated_Source\PSoC5/cyfitter_cfg.c **** 		CYPACKED typedef struct {
 401:.\Generated_Source\PSoC5/cyfitter_cfg.c **** 			void CYFAR *address;
 402:.\Generated_Source\PSoC5/cyfitter_cfg.c **** 			uint16 size;
 403:.\Generated_Source\PSoC5/cyfitter_cfg.c **** 		} CYPACKED_ATTR cfg_memset_t;
 404:.\Generated_Source\PSoC5/cyfitter_cfg.c **** 
 405:.\Generated_Source\PSoC5/cyfitter_cfg.c **** 		static const cfg_memset_t CYCODE cfg_memset_list [] = {
 406:.\Generated_Source\PSoC5/cyfitter_cfg.c **** 			/* address, size */
 407:.\Generated_Source\PSoC5/cyfitter_cfg.c **** 			{(void CYFAR *)(CYREG_TMR0_CFG0), 12u},
 408:.\Generated_Source\PSoC5/cyfitter_cfg.c **** 			{(void CYFAR *)(CYREG_PRT1_DR), 16u},
 409:.\Generated_Source\PSoC5/cyfitter_cfg.c **** 			{(void CYFAR *)(CYREG_PRT3_DR), 48u},
 410:.\Generated_Source\PSoC5/cyfitter_cfg.c **** 			{(void CYFAR *)(CYREG_PRT12_DR), 16u},
 411:.\Generated_Source\PSoC5/cyfitter_cfg.c **** 			{(void CYFAR *)(CYREG_PRT15_DR), 16u},
 412:.\Generated_Source\PSoC5/cyfitter_cfg.c **** 			{(void CYFAR *)(CYDEV_UCFG_B0_P0_U0_BASE), 4096u},
 413:.\Generated_Source\PSoC5/cyfitter_cfg.c **** 			{(void CYFAR *)(CYDEV_UCFG_B1_P2_U0_BASE), 2048u},
 414:.\Generated_Source\PSoC5/cyfitter_cfg.c **** 			{(void CYFAR *)(CYDEV_UCFG_DSI0_BASE), 2560u},
 415:.\Generated_Source\PSoC5/cyfitter_cfg.c **** 			{(void CYFAR *)(CYDEV_UCFG_DSI12_BASE), 512u},
 416:.\Generated_Source\PSoC5/cyfitter_cfg.c **** 			{(void CYFAR *)(CYREG_BCTL0_MDCLK_EN), 32u},
 417:.\Generated_Source\PSoC5/cyfitter_cfg.c **** 		};
 418:.\Generated_Source\PSoC5/cyfitter_cfg.c **** 
 419:.\Generated_Source\PSoC5/cyfitter_cfg.c **** 		uint8 CYDATA i;
 420:.\Generated_Source\PSoC5/cyfitter_cfg.c **** 
 421:.\Generated_Source\PSoC5/cyfitter_cfg.c **** 		/* Zero out critical memory blocks before beginning configuration */
 422:.\Generated_Source\PSoC5/cyfitter_cfg.c **** 		for (i = 0u; i < (sizeof(cfg_memset_list)/sizeof(cfg_memset_list[0])); i++)
 654              		.loc 1 422 0
 655 0024 4FF00003 		mov	r3, #0
 656 0028 FB71     		strb	r3, [r7, #7]
ARM GAS  C:\Users\gmh5970\AppData\Local\Temp\ccPMdwtb.s 			page 20


 657 002a 19E0     		b	.L21
 658              	.L22:
 659              	.LBB4:
 423:.\Generated_Source\PSoC5/cyfitter_cfg.c **** 		{
 424:.\Generated_Source\PSoC5/cyfitter_cfg.c **** 			const cfg_memset_t CYCODE * CYDATA ms = &cfg_memset_list[i];
 660              		.loc 1 424 0 discriminator 2
 661 002c FA79     		ldrb	r2, [r7, #7]	@ zero_extendqisi2
 662 002e 1346     		mov	r3, r2
 663 0030 4FEA4303 		lsl	r3, r3, #1
 664 0034 9B18     		adds	r3, r3, r2
 665 0036 4FEA4303 		lsl	r3, r3, #1
 666 003a 40F20002 		movw	r2, #:lower16:cfg_memset_list.4820
 667 003e C0F20002 		movt	r2, #:upper16:cfg_memset_list.4820
 668 0042 9B18     		adds	r3, r3, r2
 669 0044 3B60     		str	r3, [r7, #0]
 425:.\Generated_Source\PSoC5/cyfitter_cfg.c **** 			CYMEMZERO(ms->address, (uint32)(ms->size));
 670              		.loc 1 425 0 discriminator 2
 671 0046 3B68     		ldr	r3, [r7, #0]
 672 0048 1A68     		ldr	r2, [r3, #0]	@ unaligned
 673 004a 3B68     		ldr	r3, [r7, #0]
 674 004c 9B88     		ldrh	r3, [r3, #4]	@ unaligned
 675 004e 9BB2     		uxth	r3, r3
 676 0050 1046     		mov	r0, r2
 677 0052 1946     		mov	r1, r3
 678 0054 FFF7FEFF 		bl	CYMEMZERO
 679              	.LBE4:
 422:.\Generated_Source\PSoC5/cyfitter_cfg.c **** 		for (i = 0u; i < (sizeof(cfg_memset_list)/sizeof(cfg_memset_list[0])); i++)
 680              		.loc 1 422 0 discriminator 2
 681 0058 FB79     		ldrb	r3, [r7, #7]
 682 005a 03F10103 		add	r3, r3, #1
 683 005e FB71     		strb	r3, [r7, #7]
 684              	.L21:
 422:.\Generated_Source\PSoC5/cyfitter_cfg.c **** 		for (i = 0u; i < (sizeof(cfg_memset_list)/sizeof(cfg_memset_list[0])); i++)
 685              		.loc 1 422 0 is_stmt 0 discriminator 1
 686 0060 FB79     		ldrb	r3, [r7, #7]	@ zero_extendqisi2
 687 0062 092B     		cmp	r3, #9
 688 0064 E2D9     		bls	.L22
 426:.\Generated_Source\PSoC5/cyfitter_cfg.c **** 		}
 427:.\Generated_Source\PSoC5/cyfitter_cfg.c **** 
 428:.\Generated_Source\PSoC5/cyfitter_cfg.c **** 		cfg_write_bytes32(cy_cfg_addr_table, cy_cfg_data_table);
 689              		.loc 1 428 0 is_stmt 1
 690 0066 40F20000 		movw	r0, #:lower16:cy_cfg_addr_table.4814
 691 006a C0F20000 		movt	r0, #:upper16:cy_cfg_addr_table.4814
 692 006e 40F20001 		movw	r1, #:lower16:cy_cfg_data_table.4815
 693 0072 C0F20001 		movt	r1, #:upper16:cy_cfg_data_table.4815
 694 0076 FFF7FEFF 		bl	cfg_write_bytes32
 429:.\Generated_Source\PSoC5/cyfitter_cfg.c **** 
 430:.\Generated_Source\PSoC5/cyfitter_cfg.c **** 		/* Enable digital routing */
 431:.\Generated_Source\PSoC5/cyfitter_cfg.c **** 		CY_SET_XTND_REG8((void CYFAR *)CYREG_BCTL0_BANK_CTL, CY_GET_XTND_REG8((void CYFAR *)CYREG_BCTL0_B
 695              		.loc 1 431 0
 696 007a 45F20303 		movw	r3, #20483
 697 007e C4F20103 		movt	r3, 16385
 698 0082 45F20302 		movw	r2, #20483
 699 0086 C4F20102 		movt	r2, 16385
 700 008a 1278     		ldrb	r2, [r2, #0]
 701 008c D2B2     		uxtb	r2, r2
 702 008e 42F00202 		orr	r2, r2, #2
ARM GAS  C:\Users\gmh5970\AppData\Local\Temp\ccPMdwtb.s 			page 21


 703 0092 D2B2     		uxtb	r2, r2
 704 0094 1A70     		strb	r2, [r3, #0]
 432:.\Generated_Source\PSoC5/cyfitter_cfg.c **** 		CY_SET_XTND_REG8((void CYFAR *)CYREG_BCTL1_BANK_CTL, CY_GET_XTND_REG8((void CYFAR *)CYREG_BCTL1_B
 705              		.loc 1 432 0
 706 0096 45F21303 		movw	r3, #20499
 707 009a C4F20103 		movt	r3, 16385
 708 009e 45F21302 		movw	r2, #20499
 709 00a2 C4F20102 		movt	r2, 16385
 710 00a6 1278     		ldrb	r2, [r2, #0]
 711 00a8 D2B2     		uxtb	r2, r2
 712 00aa 42F00202 		orr	r2, r2, #2
 713 00ae D2B2     		uxtb	r2, r2
 714 00b0 1A70     		strb	r2, [r3, #0]
 433:.\Generated_Source\PSoC5/cyfitter_cfg.c **** 
 434:.\Generated_Source\PSoC5/cyfitter_cfg.c **** 		/* Enable UDB array */
 435:.\Generated_Source\PSoC5/cyfitter_cfg.c **** 		CY_SET_XTND_REG8((void CYFAR *)CYREG_PM_ACT_CFG0, CY_GET_XTND_REG8((void CYFAR *)CYREG_PM_ACT_CFG
 715              		.loc 1 435 0
 716 00b2 44F2A033 		movw	r3, #17312
 717 00b6 C4F20003 		movt	r3, 16384
 718 00ba 44F2A032 		movw	r2, #17312
 719 00be C4F20002 		movt	r2, 16384
 720 00c2 1278     		ldrb	r2, [r2, #0]
 721 00c4 D2B2     		uxtb	r2, r2
 722 00c6 42F04002 		orr	r2, r2, #64
 723 00ca D2B2     		uxtb	r2, r2
 724 00cc 1A70     		strb	r2, [r3, #0]
 436:.\Generated_Source\PSoC5/cyfitter_cfg.c **** 		CY_SET_XTND_REG8((void CYFAR *)CYREG_PM_AVAIL_CR2, CY_GET_XTND_REG8((void CYFAR *)CYREG_PM_AVAIL_
 725              		.loc 1 436 0
 726 00ce 44F2C233 		movw	r3, #17346
 727 00d2 C4F20003 		movt	r3, 16384
 728 00d6 44F2C232 		movw	r2, #17346
 729 00da C4F20002 		movt	r2, 16384
 730 00de 1278     		ldrb	r2, [r2, #0]
 731 00e0 D2B2     		uxtb	r2, r2
 732 00e2 42F01002 		orr	r2, r2, #16
 733 00e6 D2B2     		uxtb	r2, r2
 734 00e8 1A70     		strb	r2, [r3, #0]
 735              	.LBE3:
 437:.\Generated_Source\PSoC5/cyfitter_cfg.c **** 	}
 438:.\Generated_Source\PSoC5/cyfitter_cfg.c **** 
 439:.\Generated_Source\PSoC5/cyfitter_cfg.c **** 	/* Perform second pass device configuration. These items must be configured in specific order afte
 440:.\Generated_Source\PSoC5/cyfitter_cfg.c **** 	CYCONFIGCPYCODE((void CYFAR *)(CYREG_PRT0_DM0), (const void CYCODE *)(BS_IOPINS0_0_VAL), 8u);
 736              		.loc 1 440 0
 737 00ea 45F20210 		movw	r0, #20738
 738 00ee C4F20000 		movt	r0, 16384
 739 00f2 40F20001 		movw	r1, #:lower16:BS_IOPINS0_0_VAL.4811
 740 00f6 C0F20001 		movt	r1, #:upper16:BS_IOPINS0_0_VAL.4811
 741 00fa 4FF00802 		mov	r2, #8
 742 00fe FFF7FEFF 		bl	CYCONFIGCPYCODE
 441:.\Generated_Source\PSoC5/cyfitter_cfg.c **** 	CYCONFIGCPYCODE((void CYFAR *)(CYREG_PRT2_DM0), (const void CYCODE *)(BS_IOPINS0_2_VAL), 8u);
 743              		.loc 1 441 0
 744 0102 45F22210 		movw	r0, #20770
 745 0106 C4F20000 		movt	r0, 16384
 746 010a 40F20001 		movw	r1, #:lower16:BS_IOPINS0_2_VAL.4812
 747 010e C0F20001 		movt	r1, #:upper16:BS_IOPINS0_2_VAL.4812
 748 0112 4FF00802 		mov	r2, #8
 749 0116 FFF7FEFF 		bl	CYCONFIGCPYCODE
ARM GAS  C:\Users\gmh5970\AppData\Local\Temp\ccPMdwtb.s 			page 22


 442:.\Generated_Source\PSoC5/cyfitter_cfg.c **** 	CYCONFIGCPYCODE((void CYFAR *)(CYREG_PRT6_DM0), (const void CYCODE *)(BS_IOPINS0_6_VAL), 8u);
 750              		.loc 1 442 0
 751 011a 45F26210 		movw	r0, #20834
 752 011e C4F20000 		movt	r0, 16384
 753 0122 40F20001 		movw	r1, #:lower16:BS_IOPINS0_6_VAL.4813
 754 0126 C0F20001 		movt	r1, #:upper16:BS_IOPINS0_6_VAL.4813
 755 012a 4FF00802 		mov	r2, #8
 756 012e FFF7FEFF 		bl	CYCONFIGCPYCODE
 443:.\Generated_Source\PSoC5/cyfitter_cfg.c **** 
 444:.\Generated_Source\PSoC5/cyfitter_cfg.c **** 	/* Switch Boost to the precision bandgap reference from its internal reference */
 445:.\Generated_Source\PSoC5/cyfitter_cfg.c **** 	CY_SET_REG8((void CYXDATA *)CYREG_BOOST_CR2, (CY_GET_REG8((void CYXDATA *)CYREG_BOOST_CR2) | 0x08u
 757              		.loc 1 445 0
 758 0132 44F22233 		movw	r3, #17186
 759 0136 C4F20003 		movt	r3, 16384
 760 013a 44F22232 		movw	r2, #17186
 761 013e C4F20002 		movt	r2, 16384
 762 0142 1278     		ldrb	r2, [r2, #0]
 763 0144 D2B2     		uxtb	r2, r2
 764 0146 42F00802 		orr	r2, r2, #8
 765 014a D2B2     		uxtb	r2, r2
 766 014c 1A70     		strb	r2, [r3, #0]
 446:.\Generated_Source\PSoC5/cyfitter_cfg.c **** 
 447:.\Generated_Source\PSoC5/cyfitter_cfg.c **** 	/* Set Flash Cycles based on max possible frequency in case a glitch occurs during ClockSetup(). *
 448:.\Generated_Source\PSoC5/cyfitter_cfg.c **** 	CY_SET_XTND_REG8((void CYFAR *)(CYREG_CACHE_CC_CTL), (((CYDEV_INSTRUCT_CACHE_ENABLED) != 0) ? 0x01
 767              		.loc 1 448 0
 768 014e 4FF49043 		mov	r3, #18432
 769 0152 C4F20003 		movt	r3, 16384
 770 0156 4FF00002 		mov	r2, #0
 771 015a 1A70     		strb	r2, [r3, #0]
 449:.\Generated_Source\PSoC5/cyfitter_cfg.c **** 	/* Setup clocks based on selections from Clock DWR */
 450:.\Generated_Source\PSoC5/cyfitter_cfg.c **** 	ClockSetup();
 772              		.loc 1 450 0
 773 015c FFF7FEFF 		bl	ClockSetup
 451:.\Generated_Source\PSoC5/cyfitter_cfg.c **** 	/* Set Flash Cycles based on newly configured 24.00MHz Bus Clock. */
 452:.\Generated_Source\PSoC5/cyfitter_cfg.c **** 	CY_SET_XTND_REG8((void CYFAR *)(CYREG_CACHE_CC_CTL), (((CYDEV_INSTRUCT_CACHE_ENABLED) != 0) ? 0x81
 774              		.loc 1 452 0
 775 0160 4FF49043 		mov	r3, #18432
 776 0164 C4F20003 		movt	r3, 16384
 777 0168 4FF08002 		mov	r2, #128
 778 016c 1A70     		strb	r2, [r3, #0]
 453:.\Generated_Source\PSoC5/cyfitter_cfg.c **** 	CY_SET_XTND_REG8((void CYFAR *)(CYREG_PANTHER_WAITPIPE), 0x01u);
 779              		.loc 1 453 0
 780 016e 4FF00403 		mov	r3, #4
 781 0172 C4F20803 		movt	r3, 16392
 782 0176 4FF00102 		mov	r2, #1
 783 017a 1A70     		strb	r2, [r3, #0]
 454:.\Generated_Source\PSoC5/cyfitter_cfg.c **** 
 455:.\Generated_Source\PSoC5/cyfitter_cfg.c **** 	/* Perform basic analog initialization to defaults */
 456:.\Generated_Source\PSoC5/cyfitter_cfg.c **** 	AnalogSetDefault();
 784              		.loc 1 456 0
 785 017c FFF7FEFF 		bl	AnalogSetDefault
 457:.\Generated_Source\PSoC5/cyfitter_cfg.c **** 
 458:.\Generated_Source\PSoC5/cyfitter_cfg.c **** 	/* Configure alternate active mode */
 459:.\Generated_Source\PSoC5/cyfitter_cfg.c **** 	CYCONFIGCPY((void CYFAR *)CYDEV_PM_STBY_BASE, (const void CYFAR *)CYDEV_PM_ACT_BASE, 14u);
 786              		.loc 1 459 0
 787 0180 44F2B030 		movw	r0, #17328
 788 0184 C4F20000 		movt	r0, 16384
ARM GAS  C:\Users\gmh5970\AppData\Local\Temp\ccPMdwtb.s 			page 23


 789 0188 44F2A031 		movw	r1, #17312
 790 018c C4F20001 		movt	r1, 16384
 791 0190 4FF00E02 		mov	r2, #14
 792 0194 FFF7FEFF 		bl	CYCONFIGCPY
 460:.\Generated_Source\PSoC5/cyfitter_cfg.c **** }
 793              		.loc 1 460 0
 794 0198 07F10807 		add	r7, r7, #8
 795 019c BD46     		mov	sp, r7
 796 019e 80BD     		pop	{r7, pc}
 797              		.cfi_endproc
 798              	.LFE8:
 799              		.size	cyfitter_cfg, .-cyfitter_cfg
 800              		.section	.rodata
 801              		.align	2
 802              		.type	cfg_memset_list.4820, %object
 803              		.size	cfg_memset_list.4820, 60
 804              	cfg_memset_list.4820:
 805 0000 004F0040 		.word	1073762048
 806 0004 0C00     		.short	12
 807 0006 10510040 		.4byte	1073762576
 808 000a 1000     		.short	16
 809 000c 30510040 		.word	1073762608
 810 0010 3000     		.short	48
 811 0012 C0510040 		.4byte	1073762752
 812 0016 1000     		.short	16
 813 0018 F0510040 		.word	1073762800
 814 001c 1000     		.short	16
 815 001e 00000140 		.4byte	1073807360
 816 0022 0010     		.short	4096
 817 0024 00140140 		.word	1073812480
 818 0028 0008     		.short	2048
 819 002a 00400140 		.4byte	1073823744
 820 002e 000A     		.short	2560
 821 0030 004C0140 		.word	1073826816
 822 0034 0002     		.short	512
 823 0036 00500140 		.4byte	1073827840
 824 003a 2000     		.short	32
 825              		.align	2
 826              		.type	cy_cfg_addr_table.4814, %object
 827              		.size	cy_cfg_addr_table.4814, 48
 828              	cy_cfg_addr_table.4814:
 829 003c 014F0040 		.word	1073762049
 830 0040 01070140 		.word	1073809153
 831 0044 02090140 		.word	1073809666
 832 0048 040A0140 		.word	1073809924
 833 004c 010B0140 		.word	1073810177
 834 0050 02400140 		.word	1073823746
 835 0054 03410140 		.word	1073824003
 836 0058 03420140 		.word	1073824259
 837 005c 06430140 		.word	1073824518
 838 0060 02460140 		.word	1073825282
 839 0064 01470140 		.word	1073825537
 840 0068 01510140 		.word	1073828097
 841              		.align	2
 842              		.type	cy_cfg_data_table.4815, %object
 843              		.size	cy_cfg_data_table.4815, 54
 844              	cy_cfg_data_table.4815:
ARM GAS  C:\Users\gmh5970\AppData\Local\Temp\ccPMdwtb.s 			page 24


 845 006c 0A       		.byte	10
 846 006d 4B       		.byte	75
 847 006e EE       		.byte	-18
 848 006f 0C       		.byte	12
 849 0070 AF       		.byte	-81
 850 0071 20       		.byte	32
 851 0072 EE       		.byte	-18
 852 0073 04       		.byte	4
 853 0074 B8       		.byte	-72
 854 0075 20       		.byte	32
 855 0076 BE       		.byte	-66
 856 0077 10       		.byte	16
 857 0078 D8       		.byte	-40
 858 0079 04       		.byte	4
 859 007a DF       		.byte	-33
 860 007b 01       		.byte	1
 861 007c 1F       		.byte	31
 862 007d 20       		.byte	32
 863 007e 33       		.byte	51
 864 007f 20       		.byte	32
 865 0080 CC       		.byte	-52
 866 0081 10       		.byte	16
 867 0082 53       		.byte	83
 868 0083 08       		.byte	8
 869 0084 A7       		.byte	-89
 870 0085 20       		.byte	32
 871 0086 D4       		.byte	-44
 872 0087 20       		.byte	32
 873 0088 63       		.byte	99
 874 0089 02       		.byte	2
 875 008a A7       		.byte	-89
 876 008b 28       		.byte	40
 877 008c D6       		.byte	-42
 878 008d 40       		.byte	64
 879 008e 1B       		.byte	27
 880 008f 08       		.byte	8
 881 0090 A7       		.byte	-89
 882 0091 08       		.byte	8
 883 0092 AB       		.byte	-85
 884 0093 20       		.byte	32
 885 0094 AF       		.byte	-81
 886 0095 01       		.byte	1
 887 0096 C6       		.byte	-58
 888 0097 10       		.byte	16
 889 0098 EE       		.byte	-18
 890 0099 30       		.byte	48
 891 009a 1B       		.byte	27
 892 009b 04       		.byte	4
 893 009c C6       		.byte	-58
 894 009d 08       		.byte	8
 895 009e AB       		.byte	-85
 896 009f 04       		.byte	4
 897 00a0 00       		.byte	0
 898 00a1 03       		.byte	3
 899 00a2 0000     		.align	2
 900              		.type	BS_IOPINS0_0_VAL.4811, %object
 901              		.size	BS_IOPINS0_0_VAL.4811, 8
ARM GAS  C:\Users\gmh5970\AppData\Local\Temp\ccPMdwtb.s 			page 25


 902              	BS_IOPINS0_0_VAL.4811:
 903 00a4 00       		.byte	0
 904 00a5 01       		.byte	1
 905 00a6 01       		.byte	1
 906 00a7 00       		.byte	0
 907 00a8 01       		.byte	1
 908 00a9 00       		.byte	0
 909 00aa 00       		.byte	0
 910 00ab 00       		.byte	0
 911              		.align	2
 912              		.type	BS_IOPINS0_2_VAL.4812, %object
 913              		.size	BS_IOPINS0_2_VAL.4812, 8
 914              	BS_IOPINS0_2_VAL.4812:
 915 00ac 00       		.byte	0
 916 00ad 7F       		.byte	127
 917 00ae 7F       		.byte	127
 918 00af 00       		.byte	0
 919 00b0 00       		.byte	0
 920 00b1 00       		.byte	0
 921 00b2 00       		.byte	0
 922 00b3 00       		.byte	0
 923              		.align	2
 924              		.type	BS_IOPINS0_6_VAL.4813, %object
 925              		.size	BS_IOPINS0_6_VAL.4813, 8
 926              	BS_IOPINS0_6_VAL.4813:
 927 00b4 00       		.byte	0
 928 00b5 00       		.byte	0
 929 00b6 00       		.byte	0
 930 00b7 00       		.byte	0
 931 00b8 00       		.byte	0
 932 00b9 00       		.byte	0
 933 00ba 20       		.byte	32
 934 00bb 00       		.byte	0
 935              		.align	2
 936              		.type	BS_CYDEV_CLKDIST_ACFG0_CFG0_VAL.4790, %object
 937              		.size	BS_CYDEV_CLKDIST_ACFG0_CFG0_VAL.4790, 4
 938              	BS_CYDEV_CLKDIST_ACFG0_CFG0_VAL.4790:
 939 00bc 0C       		.byte	12
 940 00bd 00       		.byte	0
 941 00be 18       		.byte	24
 942 00bf 01       		.byte	1
 943              		.text
 944              	.Letext0:
 945              		.file 2 "c:\\program files (x86)\\cypress\\psoc creator\\3.0\\psoc creator\\import\\gnu_cs\\arm\\4
 946              		.file 3 "./Generated_Source/PSoC5/cytypes.h"