ARM GAS  D:\Users\BertoTech\TEMP\ccXSXt9C.s 			page 1


   1              		.syntax unified
   2              		.cpu cortex-m3
   3              		.fpu softvfp
   4              		.eabi_attribute 20, 1
   5              		.eabi_attribute 21, 1
   6              		.eabi_attribute 23, 3
   7              		.eabi_attribute 24, 1
   8              		.eabi_attribute 25, 1
   9              		.eabi_attribute 26, 1
  10              		.eabi_attribute 30, 6
  11              		.eabi_attribute 34, 1
  12              		.eabi_attribute 18, 4
  13              		.thumb
  14              		.file	"cyfitter_cfg.c"
  15              		.text
  16              	.Ltext0:
  17              		.cfi_sections	.debug_frame
  18              		.section	.text.CYMEMZERO,"ax",%progbits
  19              		.align	2
  20              		.thumb
  21              		.thumb_func
  22              		.type	CYMEMZERO, %function
  23              	CYMEMZERO:
  24              	.LFB0:
  25              		.file 1 ".\\Generated_Source\\PSoC5\\cyfitter_cfg.c"
   1:.\Generated_Source\PSoC5/cyfitter_cfg.c **** /*******************************************************************************
   2:.\Generated_Source\PSoC5/cyfitter_cfg.c **** * FILENAME: cyfitter_cfg.c
   3:.\Generated_Source\PSoC5/cyfitter_cfg.c **** * PSoC Creator 3.0 SP2
   4:.\Generated_Source\PSoC5/cyfitter_cfg.c **** *
   5:.\Generated_Source\PSoC5/cyfitter_cfg.c **** * Description:
   6:.\Generated_Source\PSoC5/cyfitter_cfg.c **** * This file is automatically generated by PSoC Creator with device 
   7:.\Generated_Source\PSoC5/cyfitter_cfg.c **** * initialization code.  Except for the user defined sections in
   8:.\Generated_Source\PSoC5/cyfitter_cfg.c **** * CyClockStartupError(), this file should not be modified.
   9:.\Generated_Source\PSoC5/cyfitter_cfg.c **** *
  10:.\Generated_Source\PSoC5/cyfitter_cfg.c **** ********************************************************************************
  11:.\Generated_Source\PSoC5/cyfitter_cfg.c **** * Copyright 2013, Cypress Semiconductor Corporation.  All rights reserved.
  12:.\Generated_Source\PSoC5/cyfitter_cfg.c **** * You may use this file only in accordance with the license, terms, conditions, 
  13:.\Generated_Source\PSoC5/cyfitter_cfg.c **** * disclaimers, and limitations in the end user license agreement accompanying 
  14:.\Generated_Source\PSoC5/cyfitter_cfg.c **** * the software package with which this file was provided.
  15:.\Generated_Source\PSoC5/cyfitter_cfg.c **** ********************************************************************************/
  16:.\Generated_Source\PSoC5/cyfitter_cfg.c **** 
  17:.\Generated_Source\PSoC5/cyfitter_cfg.c **** #include <string.h>
  18:.\Generated_Source\PSoC5/cyfitter_cfg.c **** #include <cytypes.h>
  19:.\Generated_Source\PSoC5/cyfitter_cfg.c **** #include <cydevice_trm.h>
  20:.\Generated_Source\PSoC5/cyfitter_cfg.c **** #include <cyfitter.h>
  21:.\Generated_Source\PSoC5/cyfitter_cfg.c **** #include <CyLib.h>
  22:.\Generated_Source\PSoC5/cyfitter_cfg.c **** #include <cyfitter_cfg.h>
  23:.\Generated_Source\PSoC5/cyfitter_cfg.c **** 
  24:.\Generated_Source\PSoC5/cyfitter_cfg.c **** #define CY_NEED_CYCLOCKSTARTUPERROR 1
  25:.\Generated_Source\PSoC5/cyfitter_cfg.c **** 
  26:.\Generated_Source\PSoC5/cyfitter_cfg.c **** 
  27:.\Generated_Source\PSoC5/cyfitter_cfg.c **** #if defined(__GNUC__) || defined(__ARMCC_VERSION)
  28:.\Generated_Source\PSoC5/cyfitter_cfg.c ****     #define CYPACKED 
  29:.\Generated_Source\PSoC5/cyfitter_cfg.c ****     #define CYPACKED_ATTR __attribute__ ((packed))
  30:.\Generated_Source\PSoC5/cyfitter_cfg.c ****     #define CYALIGNED __attribute__ ((aligned))
  31:.\Generated_Source\PSoC5/cyfitter_cfg.c ****     #define CY_CFG_UNUSED __attribute__ ((unused))
  32:.\Generated_Source\PSoC5/cyfitter_cfg.c ****     #define CY_CFG_SECTION __attribute__ ((section(".psocinit")))
ARM GAS  D:\Users\BertoTech\TEMP\ccXSXt9C.s 			page 2


  33:.\Generated_Source\PSoC5/cyfitter_cfg.c ****     
  34:.\Generated_Source\PSoC5/cyfitter_cfg.c ****     #if CYDEV_CONFIGURATION_DMA
  35:.\Generated_Source\PSoC5/cyfitter_cfg.c ****         #if (defined(__ARMCC_VERSION) || defined(__GNUC__))
  36:.\Generated_Source\PSoC5/cyfitter_cfg.c ****             #define DMAINITSEC __attribute__ ((section(".dma_init")))
  37:.\Generated_Source\PSoC5/cyfitter_cfg.c ****         #elif defined(__ICCARM__)
  38:.\Generated_Source\PSoC5/cyfitter_cfg.c ****             #define DMAINITSEC _Pragma("location=\".dma_init\"")
  39:.\Generated_Source\PSoC5/cyfitter_cfg.c ****         #endif
  40:.\Generated_Source\PSoC5/cyfitter_cfg.c ****     #else
  41:.\Generated_Source\PSoC5/cyfitter_cfg.c ****         #define DMAINITSEC
  42:.\Generated_Source\PSoC5/cyfitter_cfg.c ****     #endif
  43:.\Generated_Source\PSoC5/cyfitter_cfg.c **** 
  44:.\Generated_Source\PSoC5/cyfitter_cfg.c ****     #if defined(__ARMCC_VERSION)
  45:.\Generated_Source\PSoC5/cyfitter_cfg.c ****         #define CY_CFG_MEMORY_BARRIER() __memory_changed()
  46:.\Generated_Source\PSoC5/cyfitter_cfg.c ****     #else
  47:.\Generated_Source\PSoC5/cyfitter_cfg.c ****         #define CY_CFG_MEMORY_BARRIER() __sync_synchronize()
  48:.\Generated_Source\PSoC5/cyfitter_cfg.c ****     #endif
  49:.\Generated_Source\PSoC5/cyfitter_cfg.c ****     
  50:.\Generated_Source\PSoC5/cyfitter_cfg.c **** #elif defined(__ICCARM__)
  51:.\Generated_Source\PSoC5/cyfitter_cfg.c ****     #include <intrinsics.h>
  52:.\Generated_Source\PSoC5/cyfitter_cfg.c **** 
  53:.\Generated_Source\PSoC5/cyfitter_cfg.c ****     #define CYPACKED __packed
  54:.\Generated_Source\PSoC5/cyfitter_cfg.c ****     #define CYPACKED_ATTR 
  55:.\Generated_Source\PSoC5/cyfitter_cfg.c ****     #define CYALIGNED _Pragma("data_alignment=4")
  56:.\Generated_Source\PSoC5/cyfitter_cfg.c ****     #define CY_CFG_UNUSED _Pragma("diag_suppress=Pe177")
  57:.\Generated_Source\PSoC5/cyfitter_cfg.c ****     #define CY_CFG_SECTION _Pragma("location=\".psocinit\"")
  58:.\Generated_Source\PSoC5/cyfitter_cfg.c ****     
  59:.\Generated_Source\PSoC5/cyfitter_cfg.c ****     #if CYDEV_CONFIGURATION_DMA
  60:.\Generated_Source\PSoC5/cyfitter_cfg.c ****         #if (defined(__ARMCC_VERSION) || defined(__GNUC__))
  61:.\Generated_Source\PSoC5/cyfitter_cfg.c ****             #define DMAINITSEC __attribute__ ((section(".dma_init")))
  62:.\Generated_Source\PSoC5/cyfitter_cfg.c ****         #elif defined(__ICCARM__)
  63:.\Generated_Source\PSoC5/cyfitter_cfg.c ****             #define DMAINITSEC _Pragma("location=\".dma_init\"")
  64:.\Generated_Source\PSoC5/cyfitter_cfg.c ****         #endif
  65:.\Generated_Source\PSoC5/cyfitter_cfg.c ****     #else
  66:.\Generated_Source\PSoC5/cyfitter_cfg.c ****         #define DMAINITSEC
  67:.\Generated_Source\PSoC5/cyfitter_cfg.c ****     #endif
  68:.\Generated_Source\PSoC5/cyfitter_cfg.c **** 
  69:.\Generated_Source\PSoC5/cyfitter_cfg.c ****     #define CY_CFG_MEMORY_BARRIER() __DMB()
  70:.\Generated_Source\PSoC5/cyfitter_cfg.c ****     
  71:.\Generated_Source\PSoC5/cyfitter_cfg.c **** #else
  72:.\Generated_Source\PSoC5/cyfitter_cfg.c ****     #error Unsupported toolchain
  73:.\Generated_Source\PSoC5/cyfitter_cfg.c **** #endif
  74:.\Generated_Source\PSoC5/cyfitter_cfg.c **** 
  75:.\Generated_Source\PSoC5/cyfitter_cfg.c **** 
  76:.\Generated_Source\PSoC5/cyfitter_cfg.c **** CY_CFG_UNUSED
  77:.\Generated_Source\PSoC5/cyfitter_cfg.c **** static void CYMEMZERO(void *s, size_t n);
  78:.\Generated_Source\PSoC5/cyfitter_cfg.c **** CY_CFG_UNUSED
  79:.\Generated_Source\PSoC5/cyfitter_cfg.c **** static void CYMEMZERO(void *s, size_t n)
  80:.\Generated_Source\PSoC5/cyfitter_cfg.c **** {
  26              		.loc 1 80 0
  27              		.cfi_startproc
  28              		@ args = 0, pretend = 0, frame = 8
  29              		@ frame_needed = 1, uses_anonymous_args = 0
  30 0000 80B5     		push	{r7, lr}
  31              	.LCFI0:
  32              		.cfi_def_cfa_offset 8
  33              		.cfi_offset 7, -8
  34              		.cfi_offset 14, -4
ARM GAS  D:\Users\BertoTech\TEMP\ccXSXt9C.s 			page 3


  35 0002 82B0     		sub	sp, sp, #8
  36              	.LCFI1:
  37              		.cfi_def_cfa_offset 16
  38 0004 00AF     		add	r7, sp, #0
  39              	.LCFI2:
  40              		.cfi_def_cfa_register 7
  41 0006 7860     		str	r0, [r7, #4]
  42 0008 3960     		str	r1, [r7, #0]
  81:.\Generated_Source\PSoC5/cyfitter_cfg.c **** 	(void)memset(s, 0, n);
  43              		.loc 1 81 0
  44 000a 7868     		ldr	r0, [r7, #4]
  45 000c 4FF00001 		mov	r1, #0
  46 0010 3A68     		ldr	r2, [r7, #0]
  47 0012 FFF7FEFF 		bl	memset
  82:.\Generated_Source\PSoC5/cyfitter_cfg.c **** }
  48              		.loc 1 82 0
  49 0016 07F10807 		add	r7, r7, #8
  50 001a BD46     		mov	sp, r7
  51 001c 80BD     		pop	{r7, pc}
  52              		.cfi_endproc
  53              	.LFE0:
  54              		.size	CYMEMZERO, .-CYMEMZERO
  55 001e 00BF     		.section	.text.CYCONFIGCPY,"ax",%progbits
  56              		.align	2
  57              		.thumb
  58              		.thumb_func
  59              		.type	CYCONFIGCPY, %function
  60              	CYCONFIGCPY:
  61              	.LFB1:
  83:.\Generated_Source\PSoC5/cyfitter_cfg.c **** CY_CFG_UNUSED
  84:.\Generated_Source\PSoC5/cyfitter_cfg.c **** static void CYCONFIGCPY(void *dest, const void *src, size_t n);
  85:.\Generated_Source\PSoC5/cyfitter_cfg.c **** CY_CFG_UNUSED
  86:.\Generated_Source\PSoC5/cyfitter_cfg.c **** static void CYCONFIGCPY(void *dest, const void *src, size_t n)
  87:.\Generated_Source\PSoC5/cyfitter_cfg.c **** {
  62              		.loc 1 87 0
  63              		.cfi_startproc
  64              		@ args = 0, pretend = 0, frame = 16
  65              		@ frame_needed = 1, uses_anonymous_args = 0
  66 0000 80B5     		push	{r7, lr}
  67              	.LCFI3:
  68              		.cfi_def_cfa_offset 8
  69              		.cfi_offset 7, -8
  70              		.cfi_offset 14, -4
  71 0002 84B0     		sub	sp, sp, #16
  72              	.LCFI4:
  73              		.cfi_def_cfa_offset 24
  74 0004 00AF     		add	r7, sp, #0
  75              	.LCFI5:
  76              		.cfi_def_cfa_register 7
  77 0006 F860     		str	r0, [r7, #12]
  78 0008 B960     		str	r1, [r7, #8]
  79 000a 7A60     		str	r2, [r7, #4]
  88:.\Generated_Source\PSoC5/cyfitter_cfg.c **** 	(void)memcpy(dest, src, n);
  80              		.loc 1 88 0
  81 000c F868     		ldr	r0, [r7, #12]
  82 000e B968     		ldr	r1, [r7, #8]
  83 0010 7A68     		ldr	r2, [r7, #4]
ARM GAS  D:\Users\BertoTech\TEMP\ccXSXt9C.s 			page 4


  84 0012 FFF7FEFF 		bl	memcpy
  89:.\Generated_Source\PSoC5/cyfitter_cfg.c **** }
  85              		.loc 1 89 0
  86 0016 07F11007 		add	r7, r7, #16
  87 001a BD46     		mov	sp, r7
  88 001c 80BD     		pop	{r7, pc}
  89              		.cfi_endproc
  90              	.LFE1:
  91              		.size	CYCONFIGCPY, .-CYCONFIGCPY
  92 001e 00BF     		.section	.text.CYCONFIGCPYCODE,"ax",%progbits
  93              		.align	2
  94              		.thumb
  95              		.thumb_func
  96              		.type	CYCONFIGCPYCODE, %function
  97              	CYCONFIGCPYCODE:
  98              	.LFB2:
  90:.\Generated_Source\PSoC5/cyfitter_cfg.c **** CY_CFG_UNUSED
  91:.\Generated_Source\PSoC5/cyfitter_cfg.c **** static void CYCONFIGCPYCODE(void *dest, const void *src, size_t n);
  92:.\Generated_Source\PSoC5/cyfitter_cfg.c **** CY_CFG_UNUSED
  93:.\Generated_Source\PSoC5/cyfitter_cfg.c **** static void CYCONFIGCPYCODE(void *dest, const void *src, size_t n)
  94:.\Generated_Source\PSoC5/cyfitter_cfg.c **** {
  99              		.loc 1 94 0
 100              		.cfi_startproc
 101              		@ args = 0, pretend = 0, frame = 16
 102              		@ frame_needed = 1, uses_anonymous_args = 0
 103 0000 80B5     		push	{r7, lr}
 104              	.LCFI6:
 105              		.cfi_def_cfa_offset 8
 106              		.cfi_offset 7, -8
 107              		.cfi_offset 14, -4
 108 0002 84B0     		sub	sp, sp, #16
 109              	.LCFI7:
 110              		.cfi_def_cfa_offset 24
 111 0004 00AF     		add	r7, sp, #0
 112              	.LCFI8:
 113              		.cfi_def_cfa_register 7
 114 0006 F860     		str	r0, [r7, #12]
 115 0008 B960     		str	r1, [r7, #8]
 116 000a 7A60     		str	r2, [r7, #4]
  95:.\Generated_Source\PSoC5/cyfitter_cfg.c **** 	(void)memcpy(dest, src, n);
 117              		.loc 1 95 0
 118 000c F868     		ldr	r0, [r7, #12]
 119 000e B968     		ldr	r1, [r7, #8]
 120 0010 7A68     		ldr	r2, [r7, #4]
 121 0012 FFF7FEFF 		bl	memcpy
  96:.\Generated_Source\PSoC5/cyfitter_cfg.c **** }
 122              		.loc 1 96 0
 123 0016 07F11007 		add	r7, r7, #16
 124 001a BD46     		mov	sp, r7
 125 001c 80BD     		pop	{r7, pc}
 126              		.cfi_endproc
 127              	.LFE2:
 128              		.size	CYCONFIGCPYCODE, .-CYCONFIGCPYCODE
 129 001e 00BF     		.section	.text.CyClockStartupError,"ax",%progbits
 130              		.align	2
 131              		.thumb
 132              		.thumb_func
ARM GAS  D:\Users\BertoTech\TEMP\ccXSXt9C.s 			page 5


 133              		.type	CyClockStartupError, %function
 134              	CyClockStartupError:
 135              	.LFB3:
  97:.\Generated_Source\PSoC5/cyfitter_cfg.c **** 
  98:.\Generated_Source\PSoC5/cyfitter_cfg.c **** 
  99:.\Generated_Source\PSoC5/cyfitter_cfg.c **** 
 100:.\Generated_Source\PSoC5/cyfitter_cfg.c **** /* Clock startup error codes                                                   */
 101:.\Generated_Source\PSoC5/cyfitter_cfg.c **** #define CYCLOCKSTART_NO_ERROR    0u
 102:.\Generated_Source\PSoC5/cyfitter_cfg.c **** #define CYCLOCKSTART_XTAL_ERROR  1u
 103:.\Generated_Source\PSoC5/cyfitter_cfg.c **** #define CYCLOCKSTART_32KHZ_ERROR 2u
 104:.\Generated_Source\PSoC5/cyfitter_cfg.c **** #define CYCLOCKSTART_PLL_ERROR   3u
 105:.\Generated_Source\PSoC5/cyfitter_cfg.c **** 
 106:.\Generated_Source\PSoC5/cyfitter_cfg.c **** #ifdef CY_NEED_CYCLOCKSTARTUPERROR
 107:.\Generated_Source\PSoC5/cyfitter_cfg.c **** /*******************************************************************************
 108:.\Generated_Source\PSoC5/cyfitter_cfg.c **** * Function Name: CyClockStartupError
 109:.\Generated_Source\PSoC5/cyfitter_cfg.c **** ********************************************************************************
 110:.\Generated_Source\PSoC5/cyfitter_cfg.c **** * Summary:
 111:.\Generated_Source\PSoC5/cyfitter_cfg.c **** *  If an error is encountered during clock configuration (crystal startup error,
 112:.\Generated_Source\PSoC5/cyfitter_cfg.c **** *  PLL lock error, etc.), the system will end up here.  Unless reimplemented by
 113:.\Generated_Source\PSoC5/cyfitter_cfg.c **** *  the customer, this function will stop in an infinite loop.
 114:.\Generated_Source\PSoC5/cyfitter_cfg.c **** *
 115:.\Generated_Source\PSoC5/cyfitter_cfg.c **** * Parameters:
 116:.\Generated_Source\PSoC5/cyfitter_cfg.c **** *   void
 117:.\Generated_Source\PSoC5/cyfitter_cfg.c **** *
 118:.\Generated_Source\PSoC5/cyfitter_cfg.c **** * Return:
 119:.\Generated_Source\PSoC5/cyfitter_cfg.c **** *   void
 120:.\Generated_Source\PSoC5/cyfitter_cfg.c **** *
 121:.\Generated_Source\PSoC5/cyfitter_cfg.c **** *******************************************************************************/
 122:.\Generated_Source\PSoC5/cyfitter_cfg.c **** CY_CFG_UNUSED
 123:.\Generated_Source\PSoC5/cyfitter_cfg.c **** static void CyClockStartupError(uint8 errorCode);
 124:.\Generated_Source\PSoC5/cyfitter_cfg.c **** CY_CFG_UNUSED
 125:.\Generated_Source\PSoC5/cyfitter_cfg.c **** static void CyClockStartupError(uint8 errorCode)
 126:.\Generated_Source\PSoC5/cyfitter_cfg.c **** {
 136              		.loc 1 126 0
 137              		.cfi_startproc
 138              		@ args = 0, pretend = 0, frame = 8
 139              		@ frame_needed = 1, uses_anonymous_args = 0
 140              		@ link register save eliminated.
 141 0000 80B4     		push	{r7}
 142              	.LCFI9:
 143              		.cfi_def_cfa_offset 4
 144              		.cfi_offset 7, -4
 145 0002 83B0     		sub	sp, sp, #12
 146              	.LCFI10:
 147              		.cfi_def_cfa_offset 16
 148 0004 00AF     		add	r7, sp, #0
 149              	.LCFI11:
 150              		.cfi_def_cfa_register 7
 151 0006 0346     		mov	r3, r0
 152 0008 FB71     		strb	r3, [r7, #7]
 153              	.L5:
 127:.\Generated_Source\PSoC5/cyfitter_cfg.c ****     /* To remove the compiler warning if errorCode not used.                */
 128:.\Generated_Source\PSoC5/cyfitter_cfg.c ****     errorCode = errorCode;
 129:.\Generated_Source\PSoC5/cyfitter_cfg.c **** 
 130:.\Generated_Source\PSoC5/cyfitter_cfg.c ****     /* `#START CyClockStartupError` */
 131:.\Generated_Source\PSoC5/cyfitter_cfg.c **** 
 132:.\Generated_Source\PSoC5/cyfitter_cfg.c ****     /* If we have a clock startup error (bad MHz crystal, PLL lock, etc.),  */
ARM GAS  D:\Users\BertoTech\TEMP\ccXSXt9C.s 			page 6


 133:.\Generated_Source\PSoC5/cyfitter_cfg.c ****     /* we will end up here to allow the customer to implement something to  */
 134:.\Generated_Source\PSoC5/cyfitter_cfg.c ****     /* deal with the clock condition.                                       */
 135:.\Generated_Source\PSoC5/cyfitter_cfg.c **** 
 136:.\Generated_Source\PSoC5/cyfitter_cfg.c ****     /* `#END` */
 137:.\Generated_Source\PSoC5/cyfitter_cfg.c **** 
 138:.\Generated_Source\PSoC5/cyfitter_cfg.c ****     /* If nothing else, stop here since the clocks have not started         */
 139:.\Generated_Source\PSoC5/cyfitter_cfg.c ****     /* correctly.                                                           */
 140:.\Generated_Source\PSoC5/cyfitter_cfg.c ****     while(1) {}
 154              		.loc 1 140 0 discriminator 1
 155 000a FEE7     		b	.L5
 156              		.cfi_endproc
 157              	.LFE3:
 158              		.size	CyClockStartupError, .-CyClockStartupError
 159              		.section	.text.cfg_dma_init,"ax",%progbits
 160              		.align	2
 161              		.thumb
 162              		.thumb_func
 163              		.type	cfg_dma_init, %function
 164              	cfg_dma_init:
 165              	.LFB4:
 141:.\Generated_Source\PSoC5/cyfitter_cfg.c **** }
 142:.\Generated_Source\PSoC5/cyfitter_cfg.c **** #endif
 143:.\Generated_Source\PSoC5/cyfitter_cfg.c **** 
 144:.\Generated_Source\PSoC5/cyfitter_cfg.c **** /* IDMUX Address: CYREG_IDMUX_DRQ_CTL0 Size (bytes): 6 */
 145:.\Generated_Source\PSoC5/cyfitter_cfg.c **** #define BS_IDMUX_VAL ((const uint8 CYFAR *)0x48000000u)
 146:.\Generated_Source\PSoC5/cyfitter_cfg.c **** 
 147:.\Generated_Source\PSoC5/cyfitter_cfg.c **** /* IOPORT_1 Address: CYDEV_PRTDSI_PRT1_BASE Size (bytes): 7 */
 148:.\Generated_Source\PSoC5/cyfitter_cfg.c **** #define BS_IOPORT_1_VAL ((const uint8 CYFAR *)0x48000008u)
 149:.\Generated_Source\PSoC5/cyfitter_cfg.c **** 
 150:.\Generated_Source\PSoC5/cyfitter_cfg.c **** /* IOPORT_3 Address: CYDEV_PRTDSI_PRT3_BASE Size (bytes): 7 */
 151:.\Generated_Source\PSoC5/cyfitter_cfg.c **** #define BS_IOPORT_3_VAL ((const uint8 CYFAR *)0x48000010u)
 152:.\Generated_Source\PSoC5/cyfitter_cfg.c **** 
 153:.\Generated_Source\PSoC5/cyfitter_cfg.c **** /* IDMUX_IRQ Address: CYREG_IDMUX_IRQ_CTL0 Size (bytes): 8 */
 154:.\Generated_Source\PSoC5/cyfitter_cfg.c **** #define BS_IDMUX_IRQ_VAL ((const uint8 CYFAR *)0x48000018u)
 155:.\Generated_Source\PSoC5/cyfitter_cfg.c **** 
 156:.\Generated_Source\PSoC5/cyfitter_cfg.c **** /* UDB_1_3_0_CONFIG Address: CYDEV_UCFG_B0_P2_U0_BASE Size (bytes): 128 */
 157:.\Generated_Source\PSoC5/cyfitter_cfg.c **** #define BS_UDB_1_3_0_CONFIG_VAL ((const uint8 CYFAR *)0x48000020u)
 158:.\Generated_Source\PSoC5/cyfitter_cfg.c **** 
 159:.\Generated_Source\PSoC5/cyfitter_cfg.c **** /* UDB_1_3_1_CONFIG Address: CYDEV_UCFG_B0_P2_U1_BASE Size (bytes): 128 */
 160:.\Generated_Source\PSoC5/cyfitter_cfg.c **** #define BS_UDB_1_3_1_CONFIG_VAL ((const uint8 CYFAR *)0x480000A0u)
 161:.\Generated_Source\PSoC5/cyfitter_cfg.c **** 
 162:.\Generated_Source\PSoC5/cyfitter_cfg.c **** /* UDB_1_2_1_CONFIG Address: CYDEV_UCFG_B0_P3_U0_BASE Size (bytes): 128 */
 163:.\Generated_Source\PSoC5/cyfitter_cfg.c **** #define BS_UDB_1_2_1_CONFIG_VAL ((const uint8 CYFAR *)0x48000120u)
 164:.\Generated_Source\PSoC5/cyfitter_cfg.c **** 
 165:.\Generated_Source\PSoC5/cyfitter_cfg.c **** /* UDB_1_2_0_CONFIG Address: CYDEV_UCFG_B0_P3_U1_BASE Size (bytes): 128 */
 166:.\Generated_Source\PSoC5/cyfitter_cfg.c **** #define BS_UDB_1_2_0_CONFIG_VAL ((const uint8 CYFAR *)0x480001A0u)
 167:.\Generated_Source\PSoC5/cyfitter_cfg.c **** 
 168:.\Generated_Source\PSoC5/cyfitter_cfg.c **** /* UDB_0_2_1_CONFIG Address: CYDEV_UCFG_B0_P4_U0_BASE Size (bytes): 128 */
 169:.\Generated_Source\PSoC5/cyfitter_cfg.c **** #define BS_UDB_0_2_1_CONFIG_VAL ((const uint8 CYFAR *)0x48000220u)
 170:.\Generated_Source\PSoC5/cyfitter_cfg.c **** 
 171:.\Generated_Source\PSoC5/cyfitter_cfg.c **** /* UDB_0_2_0_CONFIG Address: CYDEV_UCFG_B0_P4_U1_BASE Size (bytes): 128 */
 172:.\Generated_Source\PSoC5/cyfitter_cfg.c **** #define BS_UDB_0_2_0_CONFIG_VAL ((const uint8 CYFAR *)0x480002A0u)
 173:.\Generated_Source\PSoC5/cyfitter_cfg.c **** 
 174:.\Generated_Source\PSoC5/cyfitter_cfg.c **** /* UDB_0_3_0_CONFIG Address: CYDEV_UCFG_B0_P5_U0_BASE Size (bytes): 128 */
 175:.\Generated_Source\PSoC5/cyfitter_cfg.c **** #define BS_UDB_0_3_0_CONFIG_VAL ((const uint8 CYFAR *)0x48000320u)
 176:.\Generated_Source\PSoC5/cyfitter_cfg.c **** 
 177:.\Generated_Source\PSoC5/cyfitter_cfg.c **** /* UDB_1_0_0_CONFIG Address: CYDEV_UCFG_B1_P2_U0_BASE Size (bytes): 128 */
ARM GAS  D:\Users\BertoTech\TEMP\ccXSXt9C.s 			page 7


 178:.\Generated_Source\PSoC5/cyfitter_cfg.c **** #define BS_UDB_1_0_0_CONFIG_VAL ((const uint8 CYFAR *)0x480003A0u)
 179:.\Generated_Source\PSoC5/cyfitter_cfg.c **** 
 180:.\Generated_Source\PSoC5/cyfitter_cfg.c **** /* UDB_1_0_1_CONFIG Address: CYDEV_UCFG_B1_P2_U1_BASE Size (bytes): 128 */
 181:.\Generated_Source\PSoC5/cyfitter_cfg.c **** #define BS_UDB_1_0_1_CONFIG_VAL ((const uint8 CYFAR *)0x48000420u)
 182:.\Generated_Source\PSoC5/cyfitter_cfg.c **** 
 183:.\Generated_Source\PSoC5/cyfitter_cfg.c **** /* UDB_1_1_1_CONFIG Address: CYDEV_UCFG_B1_P3_U0_BASE Size (bytes): 128 */
 184:.\Generated_Source\PSoC5/cyfitter_cfg.c **** #define BS_UDB_1_1_1_CONFIG_VAL ((const uint8 CYFAR *)0x480004A0u)
 185:.\Generated_Source\PSoC5/cyfitter_cfg.c **** 
 186:.\Generated_Source\PSoC5/cyfitter_cfg.c **** /* UDB_1_1_0_CONFIG Address: CYDEV_UCFG_B1_P3_U1_BASE Size (bytes): 128 */
 187:.\Generated_Source\PSoC5/cyfitter_cfg.c **** #define BS_UDB_1_1_0_CONFIG_VAL ((const uint8 CYFAR *)0x48000520u)
 188:.\Generated_Source\PSoC5/cyfitter_cfg.c **** 
 189:.\Generated_Source\PSoC5/cyfitter_cfg.c **** /* UDB_0_1_1_CONFIG Address: CYDEV_UCFG_B1_P4_U0_BASE Size (bytes): 128 */
 190:.\Generated_Source\PSoC5/cyfitter_cfg.c **** #define BS_UDB_0_1_1_CONFIG_VAL ((const uint8 CYFAR *)0x480005A0u)
 191:.\Generated_Source\PSoC5/cyfitter_cfg.c **** 
 192:.\Generated_Source\PSoC5/cyfitter_cfg.c **** /* UDB_0_1_0_CONFIG Address: CYDEV_UCFG_B1_P4_U1_BASE Size (bytes): 128 */
 193:.\Generated_Source\PSoC5/cyfitter_cfg.c **** #define BS_UDB_0_1_0_CONFIG_VAL ((const uint8 CYFAR *)0x48000620u)
 194:.\Generated_Source\PSoC5/cyfitter_cfg.c **** 
 195:.\Generated_Source\PSoC5/cyfitter_cfg.c **** /* UDB_0_0_0_CONFIG Address: CYDEV_UCFG_B1_P5_U0_BASE Size (bytes): 128 */
 196:.\Generated_Source\PSoC5/cyfitter_cfg.c **** #define BS_UDB_0_0_0_CONFIG_VAL ((const uint8 CYFAR *)0x480006A0u)
 197:.\Generated_Source\PSoC5/cyfitter_cfg.c **** 
 198:.\Generated_Source\PSoC5/cyfitter_cfg.c **** /* UDB_0_0_1_CONFIG Address: CYDEV_UCFG_B1_P5_U1_BASE Size (bytes): 128 */
 199:.\Generated_Source\PSoC5/cyfitter_cfg.c **** #define BS_UDB_0_0_1_CONFIG_VAL ((const uint8 CYFAR *)0x48000720u)
 200:.\Generated_Source\PSoC5/cyfitter_cfg.c **** 
 201:.\Generated_Source\PSoC5/cyfitter_cfg.c **** /* UWRK_B0_WRK_STATCTL_BITS Address: CYDEV_UWRK_UWRK8_B0_BASE + 0x00000070u Size (bytes): 32 */
 202:.\Generated_Source\PSoC5/cyfitter_cfg.c **** #define BS_UWRK_B0_WRK_STATCTL_BITS_VAL ((const uint8 CYFAR *)0x480007A0u)
 203:.\Generated_Source\PSoC5/cyfitter_cfg.c **** 
 204:.\Generated_Source\PSoC5/cyfitter_cfg.c **** /* UWRK_B1_WRK_STATCTL_BITS Address: CYDEV_UWRK_UWRK8_B1_BASE + 0x00000070u Size (bytes): 32 */
 205:.\Generated_Source\PSoC5/cyfitter_cfg.c **** #define BS_UWRK_B1_WRK_STATCTL_BITS_VAL ((const uint8 CYFAR *)0x480007C0u)
 206:.\Generated_Source\PSoC5/cyfitter_cfg.c **** 
 207:.\Generated_Source\PSoC5/cyfitter_cfg.c **** /* UCFG_BCTL1 Address: CYREG_BCTL1_MDCLK_EN Size (bytes): 16 */
 208:.\Generated_Source\PSoC5/cyfitter_cfg.c **** #define BS_UCFG_BCTL1_VAL ((const uint8 CYFAR *)0x480007E0u)
 209:.\Generated_Source\PSoC5/cyfitter_cfg.c **** 
 210:.\Generated_Source\PSoC5/cyfitter_cfg.c **** /* UCFG_BCTL0 Address: CYREG_BCTL0_MDCLK_EN Size (bytes): 16 */
 211:.\Generated_Source\PSoC5/cyfitter_cfg.c **** #define BS_UCFG_BCTL0_VAL ((const uint8 CYFAR *)0x480007F0u)
 212:.\Generated_Source\PSoC5/cyfitter_cfg.c **** 
 213:.\Generated_Source\PSoC5/cyfitter_cfg.c **** /* DSI0_0_HV_ROUTING Address: CYDEV_UCFG_DSI13_BASE + 0x00000080u Size (bytes): 128 */
 214:.\Generated_Source\PSoC5/cyfitter_cfg.c **** #define BS_DSI0_0_HV_ROUTING_VAL ((const uint8 CYFAR *)0x48000800u)
 215:.\Generated_Source\PSoC5/cyfitter_cfg.c **** 
 216:.\Generated_Source\PSoC5/cyfitter_cfg.c **** /* DSISWITCH_0_1 Address: CYDEV_UCFG_DSI12_BASE Size (bytes): 128 */
 217:.\Generated_Source\PSoC5/cyfitter_cfg.c **** #define BS_DSISWITCH_0_1_VAL ((const uint8 CYFAR *)0x48000880u)
 218:.\Generated_Source\PSoC5/cyfitter_cfg.c **** 
 219:.\Generated_Source\PSoC5/cyfitter_cfg.c **** /* DSI0_1_HV_ROUTING Address: CYDEV_UCFG_DSI12_BASE + 0x00000080u Size (bytes): 128 */
 220:.\Generated_Source\PSoC5/cyfitter_cfg.c **** #define BS_DSI0_1_HV_ROUTING_VAL ((const uint8 CYFAR *)0x48000900u)
 221:.\Generated_Source\PSoC5/cyfitter_cfg.c **** 
 222:.\Generated_Source\PSoC5/cyfitter_cfg.c **** /* DSI0_2_HV_ROUTING Address: CYDEV_UCFG_DSI7_BASE + 0x00000080u Size (bytes): 128 */
 223:.\Generated_Source\PSoC5/cyfitter_cfg.c **** #define BS_DSI0_2_HV_ROUTING_VAL ((const uint8 CYFAR *)0x48000980u)
 224:.\Generated_Source\PSoC5/cyfitter_cfg.c **** 
 225:.\Generated_Source\PSoC5/cyfitter_cfg.c **** /* DSISWITCH_0_3 Address: CYDEV_UCFG_DSI6_BASE Size (bytes): 128 */
 226:.\Generated_Source\PSoC5/cyfitter_cfg.c **** #define BS_DSISWITCH_0_3_VAL ((const uint8 CYFAR *)0x48000A00u)
 227:.\Generated_Source\PSoC5/cyfitter_cfg.c **** 
 228:.\Generated_Source\PSoC5/cyfitter_cfg.c **** /* DSI0_3_HV_ROUTING Address: CYDEV_UCFG_DSI6_BASE + 0x00000080u Size (bytes): 128 */
 229:.\Generated_Source\PSoC5/cyfitter_cfg.c **** #define BS_DSI0_3_HV_ROUTING_VAL ((const uint8 CYFAR *)0x48000A80u)
 230:.\Generated_Source\PSoC5/cyfitter_cfg.c **** 
 231:.\Generated_Source\PSoC5/cyfitter_cfg.c **** /* DSI0_4_HV_ROUTING Address: CYDEV_UCFG_DSI5_BASE + 0x00000080u Size (bytes): 128 */
 232:.\Generated_Source\PSoC5/cyfitter_cfg.c **** #define BS_DSI0_4_HV_ROUTING_VAL ((const uint8 CYFAR *)0x48000B00u)
 233:.\Generated_Source\PSoC5/cyfitter_cfg.c **** 
 234:.\Generated_Source\PSoC5/cyfitter_cfg.c **** /* DSISWITCH_0_5 Address: CYDEV_UCFG_DSI4_BASE Size (bytes): 128 */
ARM GAS  D:\Users\BertoTech\TEMP\ccXSXt9C.s 			page 8


 235:.\Generated_Source\PSoC5/cyfitter_cfg.c **** #define BS_DSISWITCH_0_5_VAL ((const uint8 CYFAR *)0x48000B80u)
 236:.\Generated_Source\PSoC5/cyfitter_cfg.c **** 
 237:.\Generated_Source\PSoC5/cyfitter_cfg.c **** /* DSI0_5_HV_ROUTING Address: CYDEV_UCFG_DSI4_BASE + 0x00000080u Size (bytes): 128 */
 238:.\Generated_Source\PSoC5/cyfitter_cfg.c **** #define BS_DSI0_5_HV_ROUTING_VAL ((const uint8 CYFAR *)0x48000C00u)
 239:.\Generated_Source\PSoC5/cyfitter_cfg.c **** 
 240:.\Generated_Source\PSoC5/cyfitter_cfg.c **** /* UDBSWITCH_0_0 Address: CYDEV_UCFG_B1_P5_ROUTE_BASE Size (bytes): 128 */
 241:.\Generated_Source\PSoC5/cyfitter_cfg.c **** #define BS_UDBSWITCH_0_0_VAL ((const uint8 CYFAR *)0x48000C80u)
 242:.\Generated_Source\PSoC5/cyfitter_cfg.c **** 
 243:.\Generated_Source\PSoC5/cyfitter_cfg.c **** /* UDB_1_0_HV_ROUTING Address: CYDEV_UCFG_B1_P5_ROUTE_BASE + 0x00000080u Size (bytes): 128 */
 244:.\Generated_Source\PSoC5/cyfitter_cfg.c **** #define BS_UDB_1_0_HV_ROUTING_VAL ((const uint8 CYFAR *)0x48000D00u)
 245:.\Generated_Source\PSoC5/cyfitter_cfg.c **** 
 246:.\Generated_Source\PSoC5/cyfitter_cfg.c **** /* UDBSWITCH_1_0 Address: CYDEV_UCFG_B1_P2_ROUTE_BASE Size (bytes): 128 */
 247:.\Generated_Source\PSoC5/cyfitter_cfg.c **** #define BS_UDBSWITCH_1_0_VAL ((const uint8 CYFAR *)0x48000D80u)
 248:.\Generated_Source\PSoC5/cyfitter_cfg.c **** 
 249:.\Generated_Source\PSoC5/cyfitter_cfg.c **** /* UDB_2_0_HV_ROUTING Address: CYDEV_UCFG_B1_P2_ROUTE_BASE + 0x00000080u Size (bytes): 128 */
 250:.\Generated_Source\PSoC5/cyfitter_cfg.c **** #define BS_UDB_2_0_HV_ROUTING_VAL ((const uint8 CYFAR *)0x48000E00u)
 251:.\Generated_Source\PSoC5/cyfitter_cfg.c **** 
 252:.\Generated_Source\PSoC5/cyfitter_cfg.c **** /* UDBSWITCH_0_1 Address: CYDEV_UCFG_B1_P4_ROUTE_BASE Size (bytes): 128 */
 253:.\Generated_Source\PSoC5/cyfitter_cfg.c **** #define BS_UDBSWITCH_0_1_VAL ((const uint8 CYFAR *)0x48000E80u)
 254:.\Generated_Source\PSoC5/cyfitter_cfg.c **** 
 255:.\Generated_Source\PSoC5/cyfitter_cfg.c **** /* UDB_1_1_HV_ROUTING Address: CYDEV_UCFG_B1_P4_ROUTE_BASE + 0x00000080u Size (bytes): 128 */
 256:.\Generated_Source\PSoC5/cyfitter_cfg.c **** #define BS_UDB_1_1_HV_ROUTING_VAL ((const uint8 CYFAR *)0x48000F00u)
 257:.\Generated_Source\PSoC5/cyfitter_cfg.c **** 
 258:.\Generated_Source\PSoC5/cyfitter_cfg.c **** /* UDBSWITCH_1_1 Address: CYDEV_UCFG_B1_P3_ROUTE_BASE Size (bytes): 128 */
 259:.\Generated_Source\PSoC5/cyfitter_cfg.c **** #define BS_UDBSWITCH_1_1_VAL ((const uint8 CYFAR *)0x48000F80u)
 260:.\Generated_Source\PSoC5/cyfitter_cfg.c **** 
 261:.\Generated_Source\PSoC5/cyfitter_cfg.c **** /* UDB_2_1_HV_ROUTING Address: CYDEV_UCFG_B1_P3_ROUTE_BASE + 0x00000080u Size (bytes): 128 */
 262:.\Generated_Source\PSoC5/cyfitter_cfg.c **** #define BS_UDB_2_1_HV_ROUTING_VAL ((const uint8 CYFAR *)0x48001000u)
 263:.\Generated_Source\PSoC5/cyfitter_cfg.c **** 
 264:.\Generated_Source\PSoC5/cyfitter_cfg.c **** /* UDBSWITCH_0_2 Address: CYDEV_UCFG_B0_P4_ROUTE_BASE Size (bytes): 128 */
 265:.\Generated_Source\PSoC5/cyfitter_cfg.c **** #define BS_UDBSWITCH_0_2_VAL ((const uint8 CYFAR *)0x48001080u)
 266:.\Generated_Source\PSoC5/cyfitter_cfg.c **** 
 267:.\Generated_Source\PSoC5/cyfitter_cfg.c **** /* UDB_1_2_HV_ROUTING Address: CYDEV_UCFG_B0_P4_ROUTE_BASE + 0x00000080u Size (bytes): 128 */
 268:.\Generated_Source\PSoC5/cyfitter_cfg.c **** #define BS_UDB_1_2_HV_ROUTING_VAL ((const uint8 CYFAR *)0x48001100u)
 269:.\Generated_Source\PSoC5/cyfitter_cfg.c **** 
 270:.\Generated_Source\PSoC5/cyfitter_cfg.c **** /* UDBSWITCH_1_2 Address: CYDEV_UCFG_B0_P3_ROUTE_BASE Size (bytes): 128 */
 271:.\Generated_Source\PSoC5/cyfitter_cfg.c **** #define BS_UDBSWITCH_1_2_VAL ((const uint8 CYFAR *)0x48001180u)
 272:.\Generated_Source\PSoC5/cyfitter_cfg.c **** 
 273:.\Generated_Source\PSoC5/cyfitter_cfg.c **** /* UDB_2_2_HV_ROUTING Address: CYDEV_UCFG_B0_P3_ROUTE_BASE + 0x00000080u Size (bytes): 128 */
 274:.\Generated_Source\PSoC5/cyfitter_cfg.c **** #define BS_UDB_2_2_HV_ROUTING_VAL ((const uint8 CYFAR *)0x48001200u)
 275:.\Generated_Source\PSoC5/cyfitter_cfg.c **** 
 276:.\Generated_Source\PSoC5/cyfitter_cfg.c **** /* UDBSWITCH_0_3 Address: CYDEV_UCFG_B0_P5_ROUTE_BASE Size (bytes): 128 */
 277:.\Generated_Source\PSoC5/cyfitter_cfg.c **** #define BS_UDBSWITCH_0_3_VAL ((const uint8 CYFAR *)0x48001280u)
 278:.\Generated_Source\PSoC5/cyfitter_cfg.c **** 
 279:.\Generated_Source\PSoC5/cyfitter_cfg.c **** /* UDBSWITCH_1_3 Address: CYDEV_UCFG_B0_P2_ROUTE_BASE Size (bytes): 128 */
 280:.\Generated_Source\PSoC5/cyfitter_cfg.c **** #define BS_UDBSWITCH_1_3_VAL ((const uint8 CYFAR *)0x48001300u)
 281:.\Generated_Source\PSoC5/cyfitter_cfg.c **** 
 282:.\Generated_Source\PSoC5/cyfitter_cfg.c **** /* UDB_2_3_HV_ROUTING Address: CYDEV_UCFG_B0_P2_ROUTE_BASE + 0x00000080u Size (bytes): 128 */
 283:.\Generated_Source\PSoC5/cyfitter_cfg.c **** #define BS_UDB_2_3_HV_ROUTING_VAL ((const uint8 CYFAR *)0x48001380u)
 284:.\Generated_Source\PSoC5/cyfitter_cfg.c **** 
 285:.\Generated_Source\PSoC5/cyfitter_cfg.c **** /* UDB_2_4_HV_ROUTING Address: CYDEV_UCFG_B0_P1_ROUTE_BASE + 0x00000080u Size (bytes): 128 */
 286:.\Generated_Source\PSoC5/cyfitter_cfg.c **** #define BS_UDB_2_4_HV_ROUTING_VAL ((const uint8 CYFAR *)0x48001400u)
 287:.\Generated_Source\PSoC5/cyfitter_cfg.c **** 
 288:.\Generated_Source\PSoC5/cyfitter_cfg.c **** /* DSISWITCH_1_0 Address: CYDEV_UCFG_DSI9_BASE Size (bytes): 128 */
 289:.\Generated_Source\PSoC5/cyfitter_cfg.c **** #define BS_DSISWITCH_1_0_VAL ((const uint8 CYFAR *)0x48001480u)
 290:.\Generated_Source\PSoC5/cyfitter_cfg.c **** 
 291:.\Generated_Source\PSoC5/cyfitter_cfg.c **** /* DSI3_0_HV_ROUTING Address: CYDEV_UCFG_DSI9_BASE + 0x00000080u Size (bytes): 128 */
ARM GAS  D:\Users\BertoTech\TEMP\ccXSXt9C.s 			page 9


 292:.\Generated_Source\PSoC5/cyfitter_cfg.c **** #define BS_DSI3_0_HV_ROUTING_VAL ((const uint8 CYFAR *)0x48001500u)
 293:.\Generated_Source\PSoC5/cyfitter_cfg.c **** 
 294:.\Generated_Source\PSoC5/cyfitter_cfg.c **** /* DSISWITCH_1_1 Address: CYDEV_UCFG_DSI8_BASE Size (bytes): 128 */
 295:.\Generated_Source\PSoC5/cyfitter_cfg.c **** #define BS_DSISWITCH_1_1_VAL ((const uint8 CYFAR *)0x48001580u)
 296:.\Generated_Source\PSoC5/cyfitter_cfg.c **** 
 297:.\Generated_Source\PSoC5/cyfitter_cfg.c **** /* DSI3_1_HV_ROUTING Address: CYDEV_UCFG_DSI8_BASE + 0x00000080u Size (bytes): 128 */
 298:.\Generated_Source\PSoC5/cyfitter_cfg.c **** #define BS_DSI3_1_HV_ROUTING_VAL ((const uint8 CYFAR *)0x48001600u)
 299:.\Generated_Source\PSoC5/cyfitter_cfg.c **** 
 300:.\Generated_Source\PSoC5/cyfitter_cfg.c **** /* DSI3_2_HV_ROUTING Address: CYDEV_UCFG_DSI3_BASE + 0x00000080u Size (bytes): 128 */
 301:.\Generated_Source\PSoC5/cyfitter_cfg.c **** #define BS_DSI3_2_HV_ROUTING_VAL ((const uint8 CYFAR *)0x48001680u)
 302:.\Generated_Source\PSoC5/cyfitter_cfg.c **** 
 303:.\Generated_Source\PSoC5/cyfitter_cfg.c **** /* DSI3_3_HV_ROUTING Address: CYDEV_UCFG_DSI2_BASE + 0x00000080u Size (bytes): 128 */
 304:.\Generated_Source\PSoC5/cyfitter_cfg.c **** #define BS_DSI3_3_HV_ROUTING_VAL ((const uint8 CYFAR *)0x48001700u)
 305:.\Generated_Source\PSoC5/cyfitter_cfg.c **** 
 306:.\Generated_Source\PSoC5/cyfitter_cfg.c **** /* DSI3_4_HV_ROUTING Address: CYDEV_UCFG_DSI1_BASE + 0x00000080u Size (bytes): 128 */
 307:.\Generated_Source\PSoC5/cyfitter_cfg.c **** #define BS_DSI3_4_HV_ROUTING_VAL ((const uint8 CYFAR *)0x48001780u)
 308:.\Generated_Source\PSoC5/cyfitter_cfg.c **** 
 309:.\Generated_Source\PSoC5/cyfitter_cfg.c **** /* DSISWITCH_1_5 Address: CYDEV_UCFG_DSI0_BASE Size (bytes): 128 */
 310:.\Generated_Source\PSoC5/cyfitter_cfg.c **** #define BS_DSISWITCH_1_5_VAL ((const uint8 CYFAR *)0x48001800u)
 311:.\Generated_Source\PSoC5/cyfitter_cfg.c **** 
 312:.\Generated_Source\PSoC5/cyfitter_cfg.c **** /* DSI3_5_HV_ROUTING Address: CYDEV_UCFG_DSI0_BASE + 0x00000080u Size (bytes): 128 */
 313:.\Generated_Source\PSoC5/cyfitter_cfg.c **** #define BS_DSI3_5_HV_ROUTING_VAL ((const uint8 CYFAR *)0x48001880u)
 314:.\Generated_Source\PSoC5/cyfitter_cfg.c **** 
 315:.\Generated_Source\PSoC5/cyfitter_cfg.c **** /* IOPINS0_0 Address: CYREG_PRT0_DM0 Size (bytes): 8 */
 316:.\Generated_Source\PSoC5/cyfitter_cfg.c **** #define BS_IOPINS0_0_VAL ((const uint8 CYFAR *)0x48001900u)
 317:.\Generated_Source\PSoC5/cyfitter_cfg.c **** 
 318:.\Generated_Source\PSoC5/cyfitter_cfg.c **** /* IOPINS0_1 Address: CYREG_PRT1_DM0 Size (bytes): 8 */
 319:.\Generated_Source\PSoC5/cyfitter_cfg.c **** #define BS_IOPINS0_1_VAL ((const uint8 CYFAR *)0x48001908u)
 320:.\Generated_Source\PSoC5/cyfitter_cfg.c **** 
 321:.\Generated_Source\PSoC5/cyfitter_cfg.c **** /* IOPINS0_2 Address: CYREG_PRT2_DM0 Size (bytes): 8 */
 322:.\Generated_Source\PSoC5/cyfitter_cfg.c **** #define BS_IOPINS0_2_VAL ((const uint8 CYFAR *)0x48001910u)
 323:.\Generated_Source\PSoC5/cyfitter_cfg.c **** 
 324:.\Generated_Source\PSoC5/cyfitter_cfg.c **** /* IOPINS0_3 Address: CYREG_PRT3_DR Size (bytes): 10 */
 325:.\Generated_Source\PSoC5/cyfitter_cfg.c **** #define BS_IOPINS0_3_VAL ((const uint8 CYFAR *)0x48001918u)
 326:.\Generated_Source\PSoC5/cyfitter_cfg.c **** 
 327:.\Generated_Source\PSoC5/cyfitter_cfg.c **** /* CYDEV_CLKDIST_ACFG0_CFG0 Address: CYREG_CLKDIST_ACFG0_CFG0 Size (bytes): 4 */
 328:.\Generated_Source\PSoC5/cyfitter_cfg.c **** #define BS_CYDEV_CLKDIST_ACFG0_CFG0_VAL ((const uint8 CYFAR *)0x48001924u)
 329:.\Generated_Source\PSoC5/cyfitter_cfg.c **** 
 330:.\Generated_Source\PSoC5/cyfitter_cfg.c **** 
 331:.\Generated_Source\PSoC5/cyfitter_cfg.c **** /*******************************************************************************
 332:.\Generated_Source\PSoC5/cyfitter_cfg.c **** * Function Name: cfg_dma_init
 333:.\Generated_Source\PSoC5/cyfitter_cfg.c **** ********************************************************************************
 334:.\Generated_Source\PSoC5/cyfitter_cfg.c **** * Summary:
 335:.\Generated_Source\PSoC5/cyfitter_cfg.c **** *  This function is used to copy device configuration data from constant values
 336:.\Generated_Source\PSoC5/cyfitter_cfg.c **** *  stored in memory into the proper chip configuration registers using DMA.  It
 337:.\Generated_Source\PSoC5/cyfitter_cfg.c **** *  pulls data out of the CFG_TD_LISTs to know exactly how/what to configure.
 338:.\Generated_Source\PSoC5/cyfitter_cfg.c **** *
 339:.\Generated_Source\PSoC5/cyfitter_cfg.c **** * Parameters:  
 340:.\Generated_Source\PSoC5/cyfitter_cfg.c **** *   void
 341:.\Generated_Source\PSoC5/cyfitter_cfg.c **** *
 342:.\Generated_Source\PSoC5/cyfitter_cfg.c **** * Return:
 343:.\Generated_Source\PSoC5/cyfitter_cfg.c **** *   void
 344:.\Generated_Source\PSoC5/cyfitter_cfg.c **** *
 345:.\Generated_Source\PSoC5/cyfitter_cfg.c **** *******************************************************************************/
 346:.\Generated_Source\PSoC5/cyfitter_cfg.c **** static void cfg_dma_init(void);
 347:.\Generated_Source\PSoC5/cyfitter_cfg.c **** static void cfg_dma_init(void)
 348:.\Generated_Source\PSoC5/cyfitter_cfg.c **** {
ARM GAS  D:\Users\BertoTech\TEMP\ccXSXt9C.s 			page 10


 166              		.loc 1 348 0
 167              		.cfi_startproc
 168              		@ args = 0, pretend = 0, frame = 8
 169              		@ frame_needed = 1, uses_anonymous_args = 0
 170 0000 80B5     		push	{r7, lr}
 171              	.LCFI12:
 172              		.cfi_def_cfa_offset 8
 173              		.cfi_offset 7, -8
 174              		.cfi_offset 14, -4
 175 0002 82B0     		sub	sp, sp, #8
 176              	.LCFI13:
 177              		.cfi_def_cfa_offset 16
 178 0004 00AF     		add	r7, sp, #0
 179              	.LCFI14:
 180              		.cfi_def_cfa_register 7
 349:.\Generated_Source\PSoC5/cyfitter_cfg.c **** 	/* TD structure for little-endian systems. Does not require endian swap */
 350:.\Generated_Source\PSoC5/cyfitter_cfg.c **** 	CYPACKED struct td_t {
 351:.\Generated_Source\PSoC5/cyfitter_cfg.c **** 		uint16 size;
 352:.\Generated_Source\PSoC5/cyfitter_cfg.c **** 		uint8 next_td_ptr;
 353:.\Generated_Source\PSoC5/cyfitter_cfg.c **** 		uint8 flags;
 354:.\Generated_Source\PSoC5/cyfitter_cfg.c **** 		uint16 src;
 355:.\Generated_Source\PSoC5/cyfitter_cfg.c **** 		uint16 dest;
 356:.\Generated_Source\PSoC5/cyfitter_cfg.c **** 	} CYPACKED_ATTR;
 357:.\Generated_Source\PSoC5/cyfitter_cfg.c **** 
 358:.\Generated_Source\PSoC5/cyfitter_cfg.c **** 	/* PHUB_CH1_CFGMEM_CFG0/1 initialization data */
 359:.\Generated_Source\PSoC5/cyfitter_cfg.c **** 	DMAINITSEC static const uint8 CYCODE CH1_ADDR_DATA0[] = { 0x01u, 0x00u, 0x00u, 0x00u, 0x00u, 0x20u
 360:.\Generated_Source\PSoC5/cyfitter_cfg.c **** 
 361:.\Generated_Source\PSoC5/cyfitter_cfg.c **** 	/* PHUB_CH2_CFGMEM_CFG0/1 initialization data */
 362:.\Generated_Source\PSoC5/cyfitter_cfg.c **** 	DMAINITSEC static const uint8 CYCODE CH2_ADDR_DATA0[] = { 0x01u, 0x00u, 0x00u, 0x00u, 0x00u, 0x20u
 363:.\Generated_Source\PSoC5/cyfitter_cfg.c **** 
 364:.\Generated_Source\PSoC5/cyfitter_cfg.c **** 	/* PHUB_CH5_CFGMEM_CFG0/1 initialization data */
 365:.\Generated_Source\PSoC5/cyfitter_cfg.c **** 	DMAINITSEC static const uint8 CYCODE CH5_ADDR_DATA0[] = { 0x01u, 0x00u, 0x00u, 0x00u, 0x00u, 0x48u
 366:.\Generated_Source\PSoC5/cyfitter_cfg.c **** 
 367:.\Generated_Source\PSoC5/cyfitter_cfg.c **** 	/* PHUB_CH6_CFGMEM_CFG0/1 initialization data */
 368:.\Generated_Source\PSoC5/cyfitter_cfg.c **** 	DMAINITSEC static const uint8 CYCODE CH6_ADDR_DATA0[] = { 0x01u, 0x00u, 0x00u, 0x00u, 0x00u, 0x48u
 369:.\Generated_Source\PSoC5/cyfitter_cfg.c **** 
 370:.\Generated_Source\PSoC5/cyfitter_cfg.c **** 	/* Initialization data for each DMA channel's TD registers */
 371:.\Generated_Source\PSoC5/cyfitter_cfg.c **** 	DMAINITSEC static const uint8 CYCODE DMA_TD_START_CMD[] = { 0x01u, 0x00u, 0x00u, 0x00u, 0x01u };
 372:.\Generated_Source\PSoC5/cyfitter_cfg.c **** 
 373:.\Generated_Source\PSoC5/cyfitter_cfg.c **** 	CYALIGNED static uint32 CYXDATA DMA_ZERO_VAL;
 374:.\Generated_Source\PSoC5/cyfitter_cfg.c **** 
 375:.\Generated_Source\PSoC5/cyfitter_cfg.c **** 	/* This table holds all of the initialization data necessary for the DMA
 376:.\Generated_Source\PSoC5/cyfitter_cfg.c **** 	   process to transfer data from the source location to the destination. */
 377:.\Generated_Source\PSoC5/cyfitter_cfg.c **** 	/* Source addresses can be relocated, but only when in 32bit addresses.
 378:.\Generated_Source\PSoC5/cyfitter_cfg.c **** 	   Because the standard TD table only has 16bit addresses, we generate a
 379:.\Generated_Source\PSoC5/cyfitter_cfg.c **** 	   separate CFG_TD_ADDR table for the source addresses that supports 32bit
 380:.\Generated_Source\PSoC5/cyfitter_cfg.c **** 	   addresses. */
 381:.\Generated_Source\PSoC5/cyfitter_cfg.c **** 	DMAINITSEC static const struct td_t CYCODE CFG_TD_LIST0[] = {
 382:.\Generated_Source\PSoC5/cyfitter_cfg.c **** 		/* Size, Next, Flags, Source, Destination */
 383:.\Generated_Source\PSoC5/cyfitter_cfg.c **** 		{ 8u, 0x02u, 0x23u, (uint16)(uint32)(0u), (uint16)(CYREG_PHUB_CFGMEM1_CFG0) },	/* TD 1 */
 384:.\Generated_Source\PSoC5/cyfitter_cfg.c **** 		{ 8u, 0x03u, 0x23u, (uint16)(uint32)(0u), (uint16)(CYREG_PHUB_CFGMEM2_CFG0) },	/* TD 2 */
 385:.\Generated_Source\PSoC5/cyfitter_cfg.c **** 		{ 8u, 0x04u, 0x23u, (uint16)(uint32)(0u), (uint16)(CYREG_PHUB_CFGMEM5_CFG0) },	/* TD 3 */
 386:.\Generated_Source\PSoC5/cyfitter_cfg.c **** 		{ 8u, 0x05u, 0x23u, (uint16)(uint32)(0u), (uint16)(CYREG_PHUB_CFGMEM6_CFG0) },	/* TD 4 */
 387:.\Generated_Source\PSoC5/cyfitter_cfg.c **** 		{ 5u, 0x06u, 0x23u, (uint16)(uint32)(0u), (uint16)(CYREG_PHUB_CH1_BASIC_CFG) },	/* TD 5 */
 388:.\Generated_Source\PSoC5/cyfitter_cfg.c **** 		{ 5u, 0x07u, 0x23u, (uint16)(uint32)(0u), (uint16)(CYREG_PHUB_CH2_BASIC_CFG) },	/* TD 6 */
 389:.\Generated_Source\PSoC5/cyfitter_cfg.c **** 		{ 5u, 0x08u, 0x23u, (uint16)(uint32)(0u), (uint16)(CYREG_PHUB_CH5_BASIC_CFG) },	/* TD 7 */
 390:.\Generated_Source\PSoC5/cyfitter_cfg.c **** 		{ 5u, 0xFEu, 0x23u, (uint16)(uint32)(0u), (uint16)(CYREG_PHUB_CH6_BASIC_CFG) },	/* TD 8 */
ARM GAS  D:\Users\BertoTech\TEMP\ccXSXt9C.s 			page 11


 391:.\Generated_Source\PSoC5/cyfitter_cfg.c **** 		{ 48u, 0x0Au, 0x22u, (uint16)(uint32)(0u), (uint16)(CYREG_PRT4_DR) },	/* TD 9 */
 392:.\Generated_Source\PSoC5/cyfitter_cfg.c **** 		{ 16u, 0x0Bu, 0x22u, (uint16)(uint32)(0u), (uint16)(CYREG_PRT12_DR) },	/* TD 10 */
 393:.\Generated_Source\PSoC5/cyfitter_cfg.c **** 		{ 16u, 0xFEu, 0x22u, (uint16)(uint32)(0u), (uint16)(CYREG_PRT15_DR) },	/* TD 11 */
 394:.\Generated_Source\PSoC5/cyfitter_cfg.c **** 		{ 896u, 0x0Du, 0x22u, (uint16)(uint32)(0u), (uint16)(CYDEV_UCFG_B0_P0_U0_BASE) },	/* TD 12 */
 395:.\Generated_Source\PSoC5/cyfitter_cfg.c **** 		{ 128u, 0x0Eu, 0x22u, (uint16)(uint32)(0u), (uint16)(CYDEV_UCFG_B0_P5_U1_BASE) },	/* TD 13 */
 396:.\Generated_Source\PSoC5/cyfitter_cfg.c **** 		{ 1152u, 0x0Fu, 0x22u, (uint16)(uint32)(0u), (uint16)(CYDEV_UCFG_B0_P5_ROUTE_BASE + 0x00000080u) 
 397:.\Generated_Source\PSoC5/cyfitter_cfg.c **** 		{ 128u, 0x10u, 0x22u, (uint16)(uint32)(0u), (uint16)(CYDEV_UCFG_DSI1_BASE) },	/* TD 15 */
 398:.\Generated_Source\PSoC5/cyfitter_cfg.c **** 		{ 128u, 0x11u, 0x22u, (uint16)(uint32)(0u), (uint16)(CYDEV_UCFG_DSI2_BASE) },	/* TD 16 */
 399:.\Generated_Source\PSoC5/cyfitter_cfg.c **** 		{ 128u, 0x12u, 0x22u, (uint16)(uint32)(0u), (uint16)(CYDEV_UCFG_DSI3_BASE) },	/* TD 17 */
 400:.\Generated_Source\PSoC5/cyfitter_cfg.c **** 		{ 128u, 0x13u, 0x22u, (uint16)(uint32)(0u), (uint16)(CYDEV_UCFG_DSI5_BASE) },	/* TD 18 */
 401:.\Generated_Source\PSoC5/cyfitter_cfg.c **** 		{ 128u, 0x14u, 0x22u, (uint16)(uint32)(0u), (uint16)(CYDEV_UCFG_DSI7_BASE) },	/* TD 19 */
 402:.\Generated_Source\PSoC5/cyfitter_cfg.c **** 		{ 128u, 0xFEu, 0x22u, (uint16)(uint32)(0u), (uint16)(CYDEV_UCFG_DSI13_BASE) },	/* TD 20 */
 403:.\Generated_Source\PSoC5/cyfitter_cfg.c **** 		{ 7u, 0x16u, 0x23u, (uint16)(uint32)(0u), (uint16)(CYDEV_PRTDSI_PRT1_BASE) },	/* TD 21 */
 404:.\Generated_Source\PSoC5/cyfitter_cfg.c **** 		{ 7u, 0x17u, 0x23u, (uint16)(uint32)(0u), (uint16)(CYDEV_PRTDSI_PRT3_BASE) },	/* TD 22 */
 405:.\Generated_Source\PSoC5/cyfitter_cfg.c **** 		{ 32u, 0x18u, 0x23u, (uint16)(uint32)(0u), (uint16)(CYDEV_UWRK_UWRK8_B0_BASE + 0x00000070u) },	/*
 406:.\Generated_Source\PSoC5/cyfitter_cfg.c **** 		{ 32u, 0xFEu, 0x23u, (uint16)(uint32)(0u), (uint16)(CYDEV_UWRK_UWRK8_B1_BASE + 0x00000070u) },	/*
 407:.\Generated_Source\PSoC5/cyfitter_cfg.c **** 		{ 8u, 0x1Au, 0x23u, (uint16)(uint32)(0u), (uint16)(CYREG_IDMUX_IRQ_CTL0) },	/* TD 25 */
 408:.\Generated_Source\PSoC5/cyfitter_cfg.c **** 		{ 128u, 0x1Bu, 0x23u, (uint16)(uint32)(0u), (uint16)(CYDEV_UCFG_B0_P2_U0_BASE) },	/* TD 26 */
 409:.\Generated_Source\PSoC5/cyfitter_cfg.c **** 		{ 128u, 0x1Cu, 0x23u, (uint16)(uint32)(0u), (uint16)(CYDEV_UCFG_B0_P2_U1_BASE) },	/* TD 27 */
 410:.\Generated_Source\PSoC5/cyfitter_cfg.c **** 		{ 128u, 0x1Du, 0x23u, (uint16)(uint32)(0u), (uint16)(CYDEV_UCFG_B0_P3_U0_BASE) },	/* TD 28 */
 411:.\Generated_Source\PSoC5/cyfitter_cfg.c **** 		{ 128u, 0x1Eu, 0x23u, (uint16)(uint32)(0u), (uint16)(CYDEV_UCFG_B0_P3_U1_BASE) },	/* TD 29 */
 412:.\Generated_Source\PSoC5/cyfitter_cfg.c **** 		{ 128u, 0x1Fu, 0x23u, (uint16)(uint32)(0u), (uint16)(CYDEV_UCFG_B0_P4_U0_BASE) },	/* TD 30 */
 413:.\Generated_Source\PSoC5/cyfitter_cfg.c **** 		{ 128u, 0x20u, 0x23u, (uint16)(uint32)(0u), (uint16)(CYDEV_UCFG_B0_P4_U1_BASE) },	/* TD 31 */
 414:.\Generated_Source\PSoC5/cyfitter_cfg.c **** 		{ 128u, 0x21u, 0x23u, (uint16)(uint32)(0u), (uint16)(CYDEV_UCFG_B0_P5_U0_BASE) },	/* TD 32 */
 415:.\Generated_Source\PSoC5/cyfitter_cfg.c **** 		{ 128u, 0x22u, 0x23u, (uint16)(uint32)(0u), (uint16)(CYDEV_UCFG_B1_P2_U0_BASE) },	/* TD 33 */
 416:.\Generated_Source\PSoC5/cyfitter_cfg.c **** 		{ 128u, 0x23u, 0x23u, (uint16)(uint32)(0u), (uint16)(CYDEV_UCFG_B1_P2_U1_BASE) },	/* TD 34 */
 417:.\Generated_Source\PSoC5/cyfitter_cfg.c **** 		{ 128u, 0x24u, 0x23u, (uint16)(uint32)(0u), (uint16)(CYDEV_UCFG_B1_P3_U0_BASE) },	/* TD 35 */
 418:.\Generated_Source\PSoC5/cyfitter_cfg.c **** 		{ 128u, 0x25u, 0x23u, (uint16)(uint32)(0u), (uint16)(CYDEV_UCFG_B1_P3_U1_BASE) },	/* TD 36 */
 419:.\Generated_Source\PSoC5/cyfitter_cfg.c **** 		{ 128u, 0x26u, 0x23u, (uint16)(uint32)(0u), (uint16)(CYDEV_UCFG_B1_P4_U0_BASE) },	/* TD 37 */
 420:.\Generated_Source\PSoC5/cyfitter_cfg.c **** 		{ 128u, 0x27u, 0x23u, (uint16)(uint32)(0u), (uint16)(CYDEV_UCFG_B1_P4_U1_BASE) },	/* TD 38 */
 421:.\Generated_Source\PSoC5/cyfitter_cfg.c **** 		{ 128u, 0x28u, 0x23u, (uint16)(uint32)(0u), (uint16)(CYDEV_UCFG_B1_P5_U0_BASE) },	/* TD 39 */
 422:.\Generated_Source\PSoC5/cyfitter_cfg.c **** 		{ 128u, 0x29u, 0x23u, (uint16)(uint32)(0u), (uint16)(CYDEV_UCFG_B1_P5_U1_BASE) },	/* TD 40 */
 423:.\Generated_Source\PSoC5/cyfitter_cfg.c **** 		{ 16u, 0x2Au, 0x23u, (uint16)(uint32)(0u), (uint16)(CYREG_BCTL1_MDCLK_EN) },	/* TD 41 */
 424:.\Generated_Source\PSoC5/cyfitter_cfg.c **** 		{ 16u, 0x2Bu, 0x23u, (uint16)(uint32)(0u), (uint16)(CYREG_BCTL0_MDCLK_EN) },	/* TD 42 */
 425:.\Generated_Source\PSoC5/cyfitter_cfg.c **** 		{ 128u, 0x2Cu, 0x23u, (uint16)(uint32)(0u), (uint16)(CYDEV_UCFG_DSI13_BASE + 0x00000080u) },	/* T
 426:.\Generated_Source\PSoC5/cyfitter_cfg.c **** 		{ 128u, 0x2Du, 0x23u, (uint16)(uint32)(0u), (uint16)(CYDEV_UCFG_DSI12_BASE) },	/* TD 44 */
 427:.\Generated_Source\PSoC5/cyfitter_cfg.c **** 		{ 128u, 0x2Eu, 0x23u, (uint16)(uint32)(0u), (uint16)(CYDEV_UCFG_DSI12_BASE + 0x00000080u) },	/* T
 428:.\Generated_Source\PSoC5/cyfitter_cfg.c **** 		{ 128u, 0x2Fu, 0x23u, (uint16)(uint32)(0u), (uint16)(CYDEV_UCFG_DSI7_BASE + 0x00000080u) },	/* TD
 429:.\Generated_Source\PSoC5/cyfitter_cfg.c **** 		{ 128u, 0x30u, 0x23u, (uint16)(uint32)(0u), (uint16)(CYDEV_UCFG_DSI6_BASE) },	/* TD 47 */
 430:.\Generated_Source\PSoC5/cyfitter_cfg.c **** 		{ 128u, 0x31u, 0x23u, (uint16)(uint32)(0u), (uint16)(CYDEV_UCFG_DSI6_BASE + 0x00000080u) },	/* TD
 431:.\Generated_Source\PSoC5/cyfitter_cfg.c **** 		{ 128u, 0x32u, 0x23u, (uint16)(uint32)(0u), (uint16)(CYDEV_UCFG_DSI5_BASE + 0x00000080u) },	/* TD
 432:.\Generated_Source\PSoC5/cyfitter_cfg.c **** 		{ 128u, 0x33u, 0x23u, (uint16)(uint32)(0u), (uint16)(CYDEV_UCFG_DSI4_BASE) },	/* TD 50 */
 433:.\Generated_Source\PSoC5/cyfitter_cfg.c **** 		{ 128u, 0x34u, 0x23u, (uint16)(uint32)(0u), (uint16)(CYDEV_UCFG_DSI4_BASE + 0x00000080u) },	/* TD
 434:.\Generated_Source\PSoC5/cyfitter_cfg.c **** 		{ 128u, 0x35u, 0x23u, (uint16)(uint32)(0u), (uint16)(CYDEV_UCFG_B1_P5_ROUTE_BASE) },	/* TD 52 */
 435:.\Generated_Source\PSoC5/cyfitter_cfg.c **** 		{ 128u, 0x36u, 0x23u, (uint16)(uint32)(0u), (uint16)(CYDEV_UCFG_B1_P5_ROUTE_BASE + 0x00000080u) }
 436:.\Generated_Source\PSoC5/cyfitter_cfg.c **** 		{ 128u, 0x37u, 0x23u, (uint16)(uint32)(0u), (uint16)(CYDEV_UCFG_B1_P2_ROUTE_BASE) },	/* TD 54 */
 437:.\Generated_Source\PSoC5/cyfitter_cfg.c **** 		{ 128u, 0x38u, 0x23u, (uint16)(uint32)(0u), (uint16)(CYDEV_UCFG_B1_P2_ROUTE_BASE + 0x00000080u) }
 438:.\Generated_Source\PSoC5/cyfitter_cfg.c **** 		{ 128u, 0x39u, 0x23u, (uint16)(uint32)(0u), (uint16)(CYDEV_UCFG_B1_P4_ROUTE_BASE) },	/* TD 56 */
 439:.\Generated_Source\PSoC5/cyfitter_cfg.c **** 		{ 128u, 0x3Au, 0x23u, (uint16)(uint32)(0u), (uint16)(CYDEV_UCFG_B1_P4_ROUTE_BASE + 0x00000080u) }
 440:.\Generated_Source\PSoC5/cyfitter_cfg.c **** 		{ 128u, 0x3Bu, 0x23u, (uint16)(uint32)(0u), (uint16)(CYDEV_UCFG_B1_P3_ROUTE_BASE) },	/* TD 58 */
 441:.\Generated_Source\PSoC5/cyfitter_cfg.c **** 		{ 128u, 0x3Cu, 0x23u, (uint16)(uint32)(0u), (uint16)(CYDEV_UCFG_B1_P3_ROUTE_BASE + 0x00000080u) }
 442:.\Generated_Source\PSoC5/cyfitter_cfg.c **** 		{ 128u, 0x3Du, 0x23u, (uint16)(uint32)(0u), (uint16)(CYDEV_UCFG_B0_P4_ROUTE_BASE) },	/* TD 60 */
 443:.\Generated_Source\PSoC5/cyfitter_cfg.c **** 		{ 128u, 0x3Eu, 0x23u, (uint16)(uint32)(0u), (uint16)(CYDEV_UCFG_B0_P4_ROUTE_BASE + 0x00000080u) }
 444:.\Generated_Source\PSoC5/cyfitter_cfg.c **** 		{ 128u, 0x3Fu, 0x23u, (uint16)(uint32)(0u), (uint16)(CYDEV_UCFG_B0_P3_ROUTE_BASE) },	/* TD 62 */
 445:.\Generated_Source\PSoC5/cyfitter_cfg.c **** 		{ 128u, 0x40u, 0x23u, (uint16)(uint32)(0u), (uint16)(CYDEV_UCFG_B0_P3_ROUTE_BASE + 0x00000080u) }
 446:.\Generated_Source\PSoC5/cyfitter_cfg.c **** 		{ 128u, 0x41u, 0x23u, (uint16)(uint32)(0u), (uint16)(CYDEV_UCFG_B0_P5_ROUTE_BASE) },	/* TD 64 */
 447:.\Generated_Source\PSoC5/cyfitter_cfg.c **** 		{ 128u, 0x42u, 0x23u, (uint16)(uint32)(0u), (uint16)(CYDEV_UCFG_B0_P2_ROUTE_BASE) },	/* TD 65 */
ARM GAS  D:\Users\BertoTech\TEMP\ccXSXt9C.s 			page 12


 448:.\Generated_Source\PSoC5/cyfitter_cfg.c **** 		{ 128u, 0x43u, 0x23u, (uint16)(uint32)(0u), (uint16)(CYDEV_UCFG_B0_P2_ROUTE_BASE + 0x00000080u) }
 449:.\Generated_Source\PSoC5/cyfitter_cfg.c **** 		{ 128u, 0x44u, 0x23u, (uint16)(uint32)(0u), (uint16)(CYDEV_UCFG_B0_P1_ROUTE_BASE + 0x00000080u) }
 450:.\Generated_Source\PSoC5/cyfitter_cfg.c **** 		{ 128u, 0x45u, 0x23u, (uint16)(uint32)(0u), (uint16)(CYDEV_UCFG_DSI9_BASE) },	/* TD 68 */
 451:.\Generated_Source\PSoC5/cyfitter_cfg.c **** 		{ 128u, 0x46u, 0x23u, (uint16)(uint32)(0u), (uint16)(CYDEV_UCFG_DSI9_BASE + 0x00000080u) },	/* TD
 452:.\Generated_Source\PSoC5/cyfitter_cfg.c **** 		{ 128u, 0x47u, 0x23u, (uint16)(uint32)(0u), (uint16)(CYDEV_UCFG_DSI8_BASE) },	/* TD 70 */
 453:.\Generated_Source\PSoC5/cyfitter_cfg.c **** 		{ 128u, 0x48u, 0x23u, (uint16)(uint32)(0u), (uint16)(CYDEV_UCFG_DSI8_BASE + 0x00000080u) },	/* TD
 454:.\Generated_Source\PSoC5/cyfitter_cfg.c **** 		{ 128u, 0x49u, 0x23u, (uint16)(uint32)(0u), (uint16)(CYDEV_UCFG_DSI3_BASE + 0x00000080u) },	/* TD
 455:.\Generated_Source\PSoC5/cyfitter_cfg.c **** 		{ 128u, 0x4Au, 0x23u, (uint16)(uint32)(0u), (uint16)(CYDEV_UCFG_DSI2_BASE + 0x00000080u) },	/* TD
 456:.\Generated_Source\PSoC5/cyfitter_cfg.c **** 		{ 128u, 0x4Bu, 0x23u, (uint16)(uint32)(0u), (uint16)(CYDEV_UCFG_DSI1_BASE + 0x00000080u) },	/* TD
 457:.\Generated_Source\PSoC5/cyfitter_cfg.c **** 		{ 128u, 0x4Cu, 0x23u, (uint16)(uint32)(0u), (uint16)(CYDEV_UCFG_DSI0_BASE) },	/* TD 75 */
 458:.\Generated_Source\PSoC5/cyfitter_cfg.c **** 		{ 128u, 0xFEu, 0x23u, (uint16)(uint32)(0u), (uint16)(CYDEV_UCFG_DSI0_BASE + 0x00000080u) },	/* TD
 459:.\Generated_Source\PSoC5/cyfitter_cfg.c **** 	};
 460:.\Generated_Source\PSoC5/cyfitter_cfg.c **** 
 461:.\Generated_Source\PSoC5/cyfitter_cfg.c **** 	/* Source addresses can be relocated, but only when in 32bit addresses.
 462:.\Generated_Source\PSoC5/cyfitter_cfg.c **** 	   Because the standard TD table only has 16bit addresses, we generate a
 463:.\Generated_Source\PSoC5/cyfitter_cfg.c **** 	   separate table for the source addresses that does use 32bit addresses. This
 464:.\Generated_Source\PSoC5/cyfitter_cfg.c **** 	   table will be re-merged with the corresponding CFG_TD_LIST table during
 465:.\Generated_Source\PSoC5/cyfitter_cfg.c **** 	   initialization. */
 466:.\Generated_Source\PSoC5/cyfitter_cfg.c **** 	static const void * const CFG_TD_ADDR0[] = {
 467:.\Generated_Source\PSoC5/cyfitter_cfg.c **** 		(const void *)(CH1_ADDR_DATA0),	/* TD 1 */
 468:.\Generated_Source\PSoC5/cyfitter_cfg.c **** 		(const void *)(CH2_ADDR_DATA0),	/* TD 2 */
 469:.\Generated_Source\PSoC5/cyfitter_cfg.c **** 		(const void *)(CH5_ADDR_DATA0),	/* TD 3 */
 470:.\Generated_Source\PSoC5/cyfitter_cfg.c **** 		(const void *)(CH6_ADDR_DATA0),	/* TD 4 */
 471:.\Generated_Source\PSoC5/cyfitter_cfg.c **** 		(const void *)(DMA_TD_START_CMD),	/* TD 5 */
 472:.\Generated_Source\PSoC5/cyfitter_cfg.c **** 		(const void *)(DMA_TD_START_CMD),	/* TD 6 */
 473:.\Generated_Source\PSoC5/cyfitter_cfg.c **** 		(const void *)(DMA_TD_START_CMD),	/* TD 7 */
 474:.\Generated_Source\PSoC5/cyfitter_cfg.c **** 		(const void *)(DMA_TD_START_CMD),	/* TD 8 */
 475:.\Generated_Source\PSoC5/cyfitter_cfg.c **** 		(const void *)(&DMA_ZERO_VAL),	/* TD 9 */
 476:.\Generated_Source\PSoC5/cyfitter_cfg.c **** 		(const void *)(&DMA_ZERO_VAL),	/* TD 10 */
 477:.\Generated_Source\PSoC5/cyfitter_cfg.c **** 		(const void *)(&DMA_ZERO_VAL),	/* TD 11 */
 478:.\Generated_Source\PSoC5/cyfitter_cfg.c **** 		(const void *)(&DMA_ZERO_VAL),	/* TD 12 */
 479:.\Generated_Source\PSoC5/cyfitter_cfg.c **** 		(const void *)(&DMA_ZERO_VAL),	/* TD 13 */
 480:.\Generated_Source\PSoC5/cyfitter_cfg.c **** 		(const void *)(&DMA_ZERO_VAL),	/* TD 14 */
 481:.\Generated_Source\PSoC5/cyfitter_cfg.c **** 		(const void *)(&DMA_ZERO_VAL),	/* TD 15 */
 482:.\Generated_Source\PSoC5/cyfitter_cfg.c **** 		(const void *)(&DMA_ZERO_VAL),	/* TD 16 */
 483:.\Generated_Source\PSoC5/cyfitter_cfg.c **** 		(const void *)(&DMA_ZERO_VAL),	/* TD 17 */
 484:.\Generated_Source\PSoC5/cyfitter_cfg.c **** 		(const void *)(&DMA_ZERO_VAL),	/* TD 18 */
 485:.\Generated_Source\PSoC5/cyfitter_cfg.c **** 		(const void *)(&DMA_ZERO_VAL),	/* TD 19 */
 486:.\Generated_Source\PSoC5/cyfitter_cfg.c **** 		(const void *)(&DMA_ZERO_VAL),	/* TD 20 */
 487:.\Generated_Source\PSoC5/cyfitter_cfg.c **** 		(const void *)(BS_IOPORT_1_VAL),	/* TD 21 */
 488:.\Generated_Source\PSoC5/cyfitter_cfg.c **** 		(const void *)(BS_IOPORT_3_VAL),	/* TD 22 */
 489:.\Generated_Source\PSoC5/cyfitter_cfg.c **** 		(const void *)(BS_UWRK_B0_WRK_STATCTL_BITS_VAL),	/* TD 23 */
 490:.\Generated_Source\PSoC5/cyfitter_cfg.c **** 		(const void *)(BS_UWRK_B1_WRK_STATCTL_BITS_VAL),	/* TD 24 */
 491:.\Generated_Source\PSoC5/cyfitter_cfg.c **** 		(const void *)(BS_IDMUX_IRQ_VAL),	/* TD 25 */
 492:.\Generated_Source\PSoC5/cyfitter_cfg.c **** 		(const void *)(BS_UDB_1_3_0_CONFIG_VAL),	/* TD 26 */
 493:.\Generated_Source\PSoC5/cyfitter_cfg.c **** 		(const void *)(BS_UDB_1_3_1_CONFIG_VAL),	/* TD 27 */
 494:.\Generated_Source\PSoC5/cyfitter_cfg.c **** 		(const void *)(BS_UDB_1_2_1_CONFIG_VAL),	/* TD 28 */
 495:.\Generated_Source\PSoC5/cyfitter_cfg.c **** 		(const void *)(BS_UDB_1_2_0_CONFIG_VAL),	/* TD 29 */
 496:.\Generated_Source\PSoC5/cyfitter_cfg.c **** 		(const void *)(BS_UDB_0_2_1_CONFIG_VAL),	/* TD 30 */
 497:.\Generated_Source\PSoC5/cyfitter_cfg.c **** 		(const void *)(BS_UDB_0_2_0_CONFIG_VAL),	/* TD 31 */
 498:.\Generated_Source\PSoC5/cyfitter_cfg.c **** 		(const void *)(BS_UDB_0_3_0_CONFIG_VAL),	/* TD 32 */
 499:.\Generated_Source\PSoC5/cyfitter_cfg.c **** 		(const void *)(BS_UDB_1_0_0_CONFIG_VAL),	/* TD 33 */
 500:.\Generated_Source\PSoC5/cyfitter_cfg.c **** 		(const void *)(BS_UDB_1_0_1_CONFIG_VAL),	/* TD 34 */
 501:.\Generated_Source\PSoC5/cyfitter_cfg.c **** 		(const void *)(BS_UDB_1_1_1_CONFIG_VAL),	/* TD 35 */
 502:.\Generated_Source\PSoC5/cyfitter_cfg.c **** 		(const void *)(BS_UDB_1_1_0_CONFIG_VAL),	/* TD 36 */
 503:.\Generated_Source\PSoC5/cyfitter_cfg.c **** 		(const void *)(BS_UDB_0_1_1_CONFIG_VAL),	/* TD 37 */
 504:.\Generated_Source\PSoC5/cyfitter_cfg.c **** 		(const void *)(BS_UDB_0_1_0_CONFIG_VAL),	/* TD 38 */
ARM GAS  D:\Users\BertoTech\TEMP\ccXSXt9C.s 			page 13


 505:.\Generated_Source\PSoC5/cyfitter_cfg.c **** 		(const void *)(BS_UDB_0_0_0_CONFIG_VAL),	/* TD 39 */
 506:.\Generated_Source\PSoC5/cyfitter_cfg.c **** 		(const void *)(BS_UDB_0_0_1_CONFIG_VAL),	/* TD 40 */
 507:.\Generated_Source\PSoC5/cyfitter_cfg.c **** 		(const void *)(BS_UCFG_BCTL1_VAL),	/* TD 41 */
 508:.\Generated_Source\PSoC5/cyfitter_cfg.c **** 		(const void *)(BS_UCFG_BCTL0_VAL),	/* TD 42 */
 509:.\Generated_Source\PSoC5/cyfitter_cfg.c **** 		(const void *)(BS_DSI0_0_HV_ROUTING_VAL),	/* TD 43 */
 510:.\Generated_Source\PSoC5/cyfitter_cfg.c **** 		(const void *)(BS_DSISWITCH_0_1_VAL),	/* TD 44 */
 511:.\Generated_Source\PSoC5/cyfitter_cfg.c **** 		(const void *)(BS_DSI0_1_HV_ROUTING_VAL),	/* TD 45 */
 512:.\Generated_Source\PSoC5/cyfitter_cfg.c **** 		(const void *)(BS_DSI0_2_HV_ROUTING_VAL),	/* TD 46 */
 513:.\Generated_Source\PSoC5/cyfitter_cfg.c **** 		(const void *)(BS_DSISWITCH_0_3_VAL),	/* TD 47 */
 514:.\Generated_Source\PSoC5/cyfitter_cfg.c **** 		(const void *)(BS_DSI0_3_HV_ROUTING_VAL),	/* TD 48 */
 515:.\Generated_Source\PSoC5/cyfitter_cfg.c **** 		(const void *)(BS_DSI0_4_HV_ROUTING_VAL),	/* TD 49 */
 516:.\Generated_Source\PSoC5/cyfitter_cfg.c **** 		(const void *)(BS_DSISWITCH_0_5_VAL),	/* TD 50 */
 517:.\Generated_Source\PSoC5/cyfitter_cfg.c **** 		(const void *)(BS_DSI0_5_HV_ROUTING_VAL),	/* TD 51 */
 518:.\Generated_Source\PSoC5/cyfitter_cfg.c **** 		(const void *)(BS_UDBSWITCH_0_0_VAL),	/* TD 52 */
 519:.\Generated_Source\PSoC5/cyfitter_cfg.c **** 		(const void *)(BS_UDB_1_0_HV_ROUTING_VAL),	/* TD 53 */
 520:.\Generated_Source\PSoC5/cyfitter_cfg.c **** 		(const void *)(BS_UDBSWITCH_1_0_VAL),	/* TD 54 */
 521:.\Generated_Source\PSoC5/cyfitter_cfg.c **** 		(const void *)(BS_UDB_2_0_HV_ROUTING_VAL),	/* TD 55 */
 522:.\Generated_Source\PSoC5/cyfitter_cfg.c **** 		(const void *)(BS_UDBSWITCH_0_1_VAL),	/* TD 56 */
 523:.\Generated_Source\PSoC5/cyfitter_cfg.c **** 		(const void *)(BS_UDB_1_1_HV_ROUTING_VAL),	/* TD 57 */
 524:.\Generated_Source\PSoC5/cyfitter_cfg.c **** 		(const void *)(BS_UDBSWITCH_1_1_VAL),	/* TD 58 */
 525:.\Generated_Source\PSoC5/cyfitter_cfg.c **** 		(const void *)(BS_UDB_2_1_HV_ROUTING_VAL),	/* TD 59 */
 526:.\Generated_Source\PSoC5/cyfitter_cfg.c **** 		(const void *)(BS_UDBSWITCH_0_2_VAL),	/* TD 60 */
 527:.\Generated_Source\PSoC5/cyfitter_cfg.c **** 		(const void *)(BS_UDB_1_2_HV_ROUTING_VAL),	/* TD 61 */
 528:.\Generated_Source\PSoC5/cyfitter_cfg.c **** 		(const void *)(BS_UDBSWITCH_1_2_VAL),	/* TD 62 */
 529:.\Generated_Source\PSoC5/cyfitter_cfg.c **** 		(const void *)(BS_UDB_2_2_HV_ROUTING_VAL),	/* TD 63 */
 530:.\Generated_Source\PSoC5/cyfitter_cfg.c **** 		(const void *)(BS_UDBSWITCH_0_3_VAL),	/* TD 64 */
 531:.\Generated_Source\PSoC5/cyfitter_cfg.c **** 		(const void *)(BS_UDBSWITCH_1_3_VAL),	/* TD 65 */
 532:.\Generated_Source\PSoC5/cyfitter_cfg.c **** 		(const void *)(BS_UDB_2_3_HV_ROUTING_VAL),	/* TD 66 */
 533:.\Generated_Source\PSoC5/cyfitter_cfg.c **** 		(const void *)(BS_UDB_2_4_HV_ROUTING_VAL),	/* TD 67 */
 534:.\Generated_Source\PSoC5/cyfitter_cfg.c **** 		(const void *)(BS_DSISWITCH_1_0_VAL),	/* TD 68 */
 535:.\Generated_Source\PSoC5/cyfitter_cfg.c **** 		(const void *)(BS_DSI3_0_HV_ROUTING_VAL),	/* TD 69 */
 536:.\Generated_Source\PSoC5/cyfitter_cfg.c **** 		(const void *)(BS_DSISWITCH_1_1_VAL),	/* TD 70 */
 537:.\Generated_Source\PSoC5/cyfitter_cfg.c **** 		(const void *)(BS_DSI3_1_HV_ROUTING_VAL),	/* TD 71 */
 538:.\Generated_Source\PSoC5/cyfitter_cfg.c **** 		(const void *)(BS_DSI3_2_HV_ROUTING_VAL),	/* TD 72 */
 539:.\Generated_Source\PSoC5/cyfitter_cfg.c **** 		(const void *)(BS_DSI3_3_HV_ROUTING_VAL),	/* TD 73 */
 540:.\Generated_Source\PSoC5/cyfitter_cfg.c **** 		(const void *)(BS_DSI3_4_HV_ROUTING_VAL),	/* TD 74 */
 541:.\Generated_Source\PSoC5/cyfitter_cfg.c **** 		(const void *)(BS_DSISWITCH_1_5_VAL),	/* TD 75 */
 542:.\Generated_Source\PSoC5/cyfitter_cfg.c **** 		(const void *)(BS_DSI3_5_HV_ROUTING_VAL),	/* TD 76 */
 543:.\Generated_Source\PSoC5/cyfitter_cfg.c **** 	};
 544:.\Generated_Source\PSoC5/cyfitter_cfg.c **** 
 545:.\Generated_Source\PSoC5/cyfitter_cfg.c **** 
 546:.\Generated_Source\PSoC5/cyfitter_cfg.c **** 	uint32 i;
 547:.\Generated_Source\PSoC5/cyfitter_cfg.c **** 
 548:.\Generated_Source\PSoC5/cyfitter_cfg.c **** 	DMA_ZERO_VAL = 0u;
 181              		.loc 1 548 0
 182 0006 40F20003 		movw	r3, #:lower16:DMA_ZERO_VAL.4782
 183 000a C0F20003 		movt	r3, #:upper16:DMA_ZERO_VAL.4782
 184 000e 4FF00002 		mov	r2, #0
 185 0012 1A60     		str	r2, [r3, #0]
 549:.\Generated_Source\PSoC5/cyfitter_cfg.c **** 	CY_SET_REG8((void CYXDATA *)CYREG_PHUB_CFGMEM0_CFG0, 0x10u);	/* set burstcnt */
 186              		.loc 1 549 0
 187 0014 4FF4EC43 		mov	r3, #30208
 188 0018 C4F20003 		movt	r3, 16384
 189 001c 4FF01002 		mov	r2, #16
 190 0020 1A70     		strb	r2, [r3, #0]
 550:.\Generated_Source\PSoC5/cyfitter_cfg.c **** 	CY_SET_REG8((void CYXDATA *)CYREG_PHUB_CH0_BASIC_CFG, 0x01u);	/* enable ch0 */
 191              		.loc 1 550 0
ARM GAS  D:\Users\BertoTech\TEMP\ccXSXt9C.s 			page 14


 192 0022 47F21003 		movw	r3, #28688
 193 0026 C4F20003 		movt	r3, 16384
 194 002a 4FF00102 		mov	r2, #1
 195 002e 1A70     		strb	r2, [r3, #0]
 551:.\Generated_Source\PSoC5/cyfitter_cfg.c **** 	CY_SET_REG8((void CYXDATA *)(CYREG_PHUB_CH0_BASIC_STATUS+1u), 0x00u);	/* set first TD to 0 */
 196              		.loc 1 551 0
 197 0030 47F21903 		movw	r3, #28697
 198 0034 C4F20003 		movt	r3, 16384
 199 0038 4FF00002 		mov	r2, #0
 200 003c 1A70     		strb	r2, [r3, #0]
 552:.\Generated_Source\PSoC5/cyfitter_cfg.c **** 	CY_SET_REG16((void CYXDATA *)CYREG_PHUB_TDMEM0_ORIG_TD0, 76u*8u);	/* transfer size */
 201              		.loc 1 552 0
 202 003e 4FF4F043 		mov	r3, #30720
 203 0042 C4F20003 		movt	r3, 16384
 204 0046 4FF41872 		mov	r2, #608
 205 004a 1A80     		strh	r2, [r3, #0]	@ movhi
 553:.\Generated_Source\PSoC5/cyfitter_cfg.c **** 	CY_SET_REG8((void CYXDATA *)(CYREG_PHUB_TDMEM0_ORIG_TD0+2u), 0x01u);	/* set next TD to 1 */
 206              		.loc 1 553 0
 207 004c 47F60203 		movw	r3, #30722
 208 0050 C4F20003 		movt	r3, 16384
 209 0054 4FF00102 		mov	r2, #1
 210 0058 1A70     		strb	r2, [r3, #0]
 554:.\Generated_Source\PSoC5/cyfitter_cfg.c **** 	CY_SET_REG8((void CYXDATA *)(CYREG_PHUB_TDMEM0_ORIG_TD0+3u), 0x03u);	/* set TD flags */
 211              		.loc 1 554 0
 212 005a 47F60303 		movw	r3, #30723
 213 005e C4F20003 		movt	r3, 16384
 214 0062 4FF00302 		mov	r2, #3
 215 0066 1A70     		strb	r2, [r3, #0]
 555:.\Generated_Source\PSoC5/cyfitter_cfg.c **** 	CY_SET_REG16((void CYXDATA *)CYREG_PHUB_TDMEM0_ORIG_TD1, (uint16)((uint32)CFG_TD_LIST0 & 0x0000FFF
 216              		.loc 1 555 0
 217 0068 47F60403 		movw	r3, #30724
 218 006c C4F20003 		movt	r3, 16384
 219 0070 40F20002 		movw	r2, #:lower16:CFG_TD_LIST0.4783
 220 0074 C0F20002 		movt	r2, #:upper16:CFG_TD_LIST0.4783
 221 0078 92B2     		uxth	r2, r2
 222 007a 1A80     		strh	r2, [r3, #0]	@ movhi
 556:.\Generated_Source\PSoC5/cyfitter_cfg.c **** 	CY_SET_REG16((void CYXDATA *)(CYREG_PHUB_TDMEM0_ORIG_TD1+2u), CYDEV_PHUB_TDMEM1_BASE);	/* set td0'
 223              		.loc 1 556 0
 224 007c 47F60603 		movw	r3, #30726
 225 0080 C4F20003 		movt	r3, 16384
 226 0084 47F60802 		movw	r2, #30728
 227 0088 1A80     		strh	r2, [r3, #0]	@ movhi
 557:.\Generated_Source\PSoC5/cyfitter_cfg.c **** 	CY_SET_REG16((void CYXDATA *)CYREG_PHUB_CFGMEM0_CFG1, (uint16)(CYDEV_FLASH_BASE >> 16));	/* set ch
 228              		.loc 1 557 0
 229 008a 47F20463 		movw	r3, #30212
 230 008e C4F20003 		movt	r3, 16384
 231 0092 4FF00002 		mov	r2, #0
 232 0096 1A80     		strh	r2, [r3, #0]	@ movhi
 558:.\Generated_Source\PSoC5/cyfitter_cfg.c **** 	CY_SET_REG16((void CYXDATA *)(CYREG_PHUB_CFGMEM0_CFG1+2u), (uint16)(CYDEV_PHUB_TDMEM1_BASE >> 16))
 233              		.loc 1 558 0
 234 0098 47F20663 		movw	r3, #30214
 235 009c C4F20003 		movt	r3, 16384
 236 00a0 4FF48042 		mov	r2, #16384
 237 00a4 1A80     		strh	r2, [r3, #0]	@ movhi
 559:.\Generated_Source\PSoC5/cyfitter_cfg.c **** 	CY_SET_REG8((void CYXDATA *)(CYREG_PHUB_CH1_BASIC_STATUS+1u), 0x09u);	/* ch1 first TD: 9 */
 238              		.loc 1 559 0
 239 00a6 47F22903 		movw	r3, #28713
ARM GAS  D:\Users\BertoTech\TEMP\ccXSXt9C.s 			page 15


 240 00aa C4F20003 		movt	r3, 16384
 241 00ae 4FF00902 		mov	r2, #9
 242 00b2 1A70     		strb	r2, [r3, #0]
 560:.\Generated_Source\PSoC5/cyfitter_cfg.c **** 	CY_SET_REG8((void CYXDATA *)(CYREG_PHUB_CH2_BASIC_STATUS+1u), 0x0Cu);	/* ch2 first TD: 12 */
 243              		.loc 1 560 0
 244 00b4 47F23903 		movw	r3, #28729
 245 00b8 C4F20003 		movt	r3, 16384
 246 00bc 4FF00C02 		mov	r2, #12
 247 00c0 1A70     		strb	r2, [r3, #0]
 561:.\Generated_Source\PSoC5/cyfitter_cfg.c **** 	CY_SET_REG8((void CYXDATA *)(CYREG_PHUB_CH5_BASIC_STATUS+1u), 0x15u);	/* ch5 first TD: 21 */
 248              		.loc 1 561 0
 249 00c2 47F26903 		movw	r3, #28777
 250 00c6 C4F20003 		movt	r3, 16384
 251 00ca 4FF01502 		mov	r2, #21
 252 00ce 1A70     		strb	r2, [r3, #0]
 562:.\Generated_Source\PSoC5/cyfitter_cfg.c **** 	CY_SET_REG8((void CYXDATA *)(CYREG_PHUB_CH6_BASIC_STATUS+1u), 0x19u);	/* ch6 first TD: 25 */
 253              		.loc 1 562 0
 254 00d0 47F27903 		movw	r3, #28793
 255 00d4 C4F20003 		movt	r3, 16384
 256 00d8 4FF01902 		mov	r2, #25
 257 00dc 1A70     		strb	r2, [r3, #0]
 563:.\Generated_Source\PSoC5/cyfitter_cfg.c **** 
 564:.\Generated_Source\PSoC5/cyfitter_cfg.c **** 	CY_CFG_MEMORY_BARRIER();
 258              		.loc 1 564 0
 259 00de BFF35F8F 		dmb	sy
 565:.\Generated_Source\PSoC5/cyfitter_cfg.c **** 	CY_SET_REG8((void CYXDATA *)CYREG_PHUB_CH0_ACTION, 0x01u); /* cpu_req */
 260              		.loc 1 565 0
 261 00e2 47F21403 		movw	r3, #28692
 262 00e6 C4F20003 		movt	r3, 16384
 263 00ea 4FF00102 		mov	r2, #1
 264 00ee 1A70     		strb	r2, [r3, #0]
 566:.\Generated_Source\PSoC5/cyfitter_cfg.c **** 	CY_CFG_MEMORY_BARRIER();
 265              		.loc 1 566 0
 266 00f0 BFF35F8F 		dmb	sy
 567:.\Generated_Source\PSoC5/cyfitter_cfg.c **** 
 568:.\Generated_Source\PSoC5/cyfitter_cfg.c **** 	/* Wait for TDs to be copied into TDMEM */
 569:.\Generated_Source\PSoC5/cyfitter_cfg.c **** 	while (CY_GET_REG16((void CYXDATA *)CYREG_PHUB_TDMEM0_ORIG_TD0) != 0u) { }
 267              		.loc 1 569 0
 268 00f4 00BF     		nop
 269              	.L7:
 270              		.loc 1 569 0 is_stmt 0 discriminator 1
 271 00f6 4FF4F043 		mov	r3, #30720
 272 00fa C4F20003 		movt	r3, 16384
 273 00fe 1B88     		ldrh	r3, [r3, #0]	@ movhi
 274 0100 9BB2     		uxth	r3, r3
 275 0102 002B     		cmp	r3, #0
 276 0104 F7D1     		bne	.L7
 570:.\Generated_Source\PSoC5/cyfitter_cfg.c **** 
 571:.\Generated_Source\PSoC5/cyfitter_cfg.c **** 	/* Recombine TD source table (CFG_TD_ADDR0) with full TD table (CFG_TD_LIST0) */
 572:.\Generated_Source\PSoC5/cyfitter_cfg.c **** 	for (i = 0u; i < 76u; i++)
 277              		.loc 1 572 0 is_stmt 1
 278 0106 4FF00003 		mov	r3, #0
 279 010a 7B60     		str	r3, [r7, #4]
 280 010c 15E0     		b	.L8
 281              	.L9:
 573:.\Generated_Source\PSoC5/cyfitter_cfg.c **** 	{
 574:.\Generated_Source\PSoC5/cyfitter_cfg.c **** 		CY_SET_REG16((void CYXDATA *)(CYREG_PHUB_TDMEM1_ORIG_TD1 + (sizeof(struct td_t)*i)), (uint16)(uin
ARM GAS  D:\Users\BertoTech\TEMP\ccXSXt9C.s 			page 16


 282              		.loc 1 574 0 discriminator 2
 283 010e 7B68     		ldr	r3, [r7, #4]
 284 0110 4FEAC302 		lsl	r2, r3, #3
 285 0114 47F60C03 		movw	r3, #30732
 286 0118 C4F20003 		movt	r3, 16384
 287 011c D318     		adds	r3, r2, r3
 288 011e 1A46     		mov	r2, r3
 289 0120 40F20003 		movw	r3, #:lower16:CFG_TD_ADDR0.4784
 290 0124 C0F20003 		movt	r3, #:upper16:CFG_TD_ADDR0.4784
 291 0128 7968     		ldr	r1, [r7, #4]
 292 012a 53F82130 		ldr	r3, [r3, r1, lsl #2]
 293 012e 9BB2     		uxth	r3, r3
 294 0130 1380     		strh	r3, [r2, #0]	@ movhi
 572:.\Generated_Source\PSoC5/cyfitter_cfg.c **** 	for (i = 0u; i < 76u; i++)
 295              		.loc 1 572 0 discriminator 2
 296 0132 7B68     		ldr	r3, [r7, #4]
 297 0134 03F10103 		add	r3, r3, #1
 298 0138 7B60     		str	r3, [r7, #4]
 299              	.L8:
 572:.\Generated_Source\PSoC5/cyfitter_cfg.c **** 	for (i = 0u; i < 76u; i++)
 300              		.loc 1 572 0 is_stmt 0 discriminator 1
 301 013a 7B68     		ldr	r3, [r7, #4]
 302 013c 4B2B     		cmp	r3, #75
 303 013e E6D9     		bls	.L9
 575:.\Generated_Source\PSoC5/cyfitter_cfg.c **** 	}
 576:.\Generated_Source\PSoC5/cyfitter_cfg.c **** 
 577:.\Generated_Source\PSoC5/cyfitter_cfg.c **** 	CY_CFG_MEMORY_BARRIER();
 304              		.loc 1 577 0 is_stmt 1
 305 0140 BFF35F8F 		dmb	sy
 578:.\Generated_Source\PSoC5/cyfitter_cfg.c **** 	CY_SET_REG8((void CYXDATA *)CYREG_PHUB_CH0_ACTION, 0x01u); /* cpu_req */
 306              		.loc 1 578 0
 307 0144 47F21403 		movw	r3, #28692
 308 0148 C4F20003 		movt	r3, 16384
 309 014c 4FF00102 		mov	r2, #1
 310 0150 1A70     		strb	r2, [r3, #0]
 579:.\Generated_Source\PSoC5/cyfitter_cfg.c **** 	CY_CFG_MEMORY_BARRIER();
 311              		.loc 1 579 0
 312 0152 BFF35F8F 		dmb	sy
 580:.\Generated_Source\PSoC5/cyfitter_cfg.c **** 
 581:.\Generated_Source\PSoC5/cyfitter_cfg.c **** 	/* Wait for all DMA transfers to complete */
 582:.\Generated_Source\PSoC5/cyfitter_cfg.c **** 	while(0u != (CY_GET_REG8((void CYXDATA *)CYREG_PHUB_CH0_BASIC_STATUS) & 0x01u)){}
 313              		.loc 1 582 0
 314 0156 00BF     		nop
 315              	.L10:
 316              		.loc 1 582 0 is_stmt 0 discriminator 1
 317 0158 47F21803 		movw	r3, #28696
 318 015c C4F20003 		movt	r3, 16384
 319 0160 1B78     		ldrb	r3, [r3, #0]
 320 0162 DBB2     		uxtb	r3, r3
 321 0164 03F00103 		and	r3, r3, #1
 322 0168 002B     		cmp	r3, #0
 323 016a F5D1     		bne	.L10
 583:.\Generated_Source\PSoC5/cyfitter_cfg.c **** 	while(0u != (CY_GET_REG8((void CYXDATA *)CYREG_PHUB_CH1_BASIC_STATUS) & 0x01u)){}
 324              		.loc 1 583 0 is_stmt 1
 325 016c 00BF     		nop
 326              	.L11:
 327              		.loc 1 583 0 is_stmt 0 discriminator 1
ARM GAS  D:\Users\BertoTech\TEMP\ccXSXt9C.s 			page 17


 328 016e 47F22803 		movw	r3, #28712
 329 0172 C4F20003 		movt	r3, 16384
 330 0176 1B78     		ldrb	r3, [r3, #0]
 331 0178 DBB2     		uxtb	r3, r3
 332 017a 03F00103 		and	r3, r3, #1
 333 017e 002B     		cmp	r3, #0
 334 0180 F5D1     		bne	.L11
 584:.\Generated_Source\PSoC5/cyfitter_cfg.c **** 	while(0u != (CY_GET_REG8((void CYXDATA *)CYREG_PHUB_CH2_BASIC_STATUS) & 0x01u)){}
 335              		.loc 1 584 0 is_stmt 1
 336 0182 00BF     		nop
 337              	.L12:
 338              		.loc 1 584 0 is_stmt 0 discriminator 1
 339 0184 47F23803 		movw	r3, #28728
 340 0188 C4F20003 		movt	r3, 16384
 341 018c 1B78     		ldrb	r3, [r3, #0]
 342 018e DBB2     		uxtb	r3, r3
 343 0190 03F00103 		and	r3, r3, #1
 344 0194 002B     		cmp	r3, #0
 345 0196 F5D1     		bne	.L12
 585:.\Generated_Source\PSoC5/cyfitter_cfg.c **** 	while(0u != (CY_GET_REG8((void CYXDATA *)CYREG_PHUB_CH5_BASIC_STATUS) & 0x01u)){}
 346              		.loc 1 585 0 is_stmt 1
 347 0198 00BF     		nop
 348              	.L13:
 349              		.loc 1 585 0 is_stmt 0 discriminator 1
 350 019a 47F26803 		movw	r3, #28776
 351 019e C4F20003 		movt	r3, 16384
 352 01a2 1B78     		ldrb	r3, [r3, #0]
 353 01a4 DBB2     		uxtb	r3, r3
 354 01a6 03F00103 		and	r3, r3, #1
 355 01aa 002B     		cmp	r3, #0
 356 01ac F5D1     		bne	.L13
 586:.\Generated_Source\PSoC5/cyfitter_cfg.c **** 	while(0u != (CY_GET_REG8((void CYXDATA *)CYREG_PHUB_CH6_BASIC_STATUS) & 0x01u)){}
 357              		.loc 1 586 0 is_stmt 1
 358 01ae 00BF     		nop
 359              	.L14:
 360              		.loc 1 586 0 is_stmt 0 discriminator 1
 361 01b0 47F27803 		movw	r3, #28792
 362 01b4 C4F20003 		movt	r3, 16384
 363 01b8 1B78     		ldrb	r3, [r3, #0]
 364 01ba DBB2     		uxtb	r3, r3
 365 01bc 03F00103 		and	r3, r3, #1
 366 01c0 002B     		cmp	r3, #0
 367 01c2 F5D1     		bne	.L14
 587:.\Generated_Source\PSoC5/cyfitter_cfg.c **** 
 588:.\Generated_Source\PSoC5/cyfitter_cfg.c **** 
 589:.\Generated_Source\PSoC5/cyfitter_cfg.c **** 	CYCONFIGCPY((void CYFAR *)(CYREG_IDMUX_DRQ_CTL0), (const void CYFAR *)(BS_IDMUX_VAL), 6u);
 368              		.loc 1 589 0 is_stmt 1
 369 01c4 45F21010 		movw	r0, #20752
 370 01c8 C4F20100 		movt	r0, 16385
 371 01cc 4FF09041 		mov	r1, #1207959552
 372 01d0 4FF00602 		mov	r2, #6
 373 01d4 FFF7FEFF 		bl	CYCONFIGCPY
 590:.\Generated_Source\PSoC5/cyfitter_cfg.c **** 
 591:.\Generated_Source\PSoC5/cyfitter_cfg.c **** }
 374              		.loc 1 591 0
 375 01d8 07F10807 		add	r7, r7, #8
 376 01dc BD46     		mov	sp, r7
ARM GAS  D:\Users\BertoTech\TEMP\ccXSXt9C.s 			page 18


 377 01de 80BD     		pop	{r7, pc}
 378              		.cfi_endproc
 379              	.LFE4:
 380              		.size	cfg_dma_init, .-cfg_dma_init
 381              		.section	.text.ClockSetup,"ax",%progbits
 382              		.align	2
 383              		.thumb
 384              		.thumb_func
 385              		.type	ClockSetup, %function
 386              	ClockSetup:
 387              	.LFB5:
 592:.\Generated_Source\PSoC5/cyfitter_cfg.c **** /*******************************************************************************
 593:.\Generated_Source\PSoC5/cyfitter_cfg.c **** * Function Name: ClockSetup
 594:.\Generated_Source\PSoC5/cyfitter_cfg.c **** ********************************************************************************
 595:.\Generated_Source\PSoC5/cyfitter_cfg.c **** *
 596:.\Generated_Source\PSoC5/cyfitter_cfg.c **** * Summary:
 597:.\Generated_Source\PSoC5/cyfitter_cfg.c **** *  Performs the initialization of all of the clocks in the device based on the
 598:.\Generated_Source\PSoC5/cyfitter_cfg.c **** *  settings in the Clock tab of the DWR.  This includes enabling the requested
 599:.\Generated_Source\PSoC5/cyfitter_cfg.c **** *  clocks and setting the necessary dividers to produce the desired frequency. 
 600:.\Generated_Source\PSoC5/cyfitter_cfg.c **** *
 601:.\Generated_Source\PSoC5/cyfitter_cfg.c **** * Parameters:
 602:.\Generated_Source\PSoC5/cyfitter_cfg.c **** *  void
 603:.\Generated_Source\PSoC5/cyfitter_cfg.c **** *
 604:.\Generated_Source\PSoC5/cyfitter_cfg.c **** * Return:
 605:.\Generated_Source\PSoC5/cyfitter_cfg.c **** *  void
 606:.\Generated_Source\PSoC5/cyfitter_cfg.c **** *
 607:.\Generated_Source\PSoC5/cyfitter_cfg.c **** *******************************************************************************/
 608:.\Generated_Source\PSoC5/cyfitter_cfg.c **** static void ClockSetup(void);
 609:.\Generated_Source\PSoC5/cyfitter_cfg.c **** static void ClockSetup(void)
 610:.\Generated_Source\PSoC5/cyfitter_cfg.c **** {
 388              		.loc 1 610 0
 389              		.cfi_startproc
 390              		@ args = 0, pretend = 0, frame = 8
 391              		@ frame_needed = 1, uses_anonymous_args = 0
 392 0000 80B5     		push	{r7, lr}
 393              	.LCFI15:
 394              		.cfi_def_cfa_offset 8
 395              		.cfi_offset 7, -8
 396              		.cfi_offset 14, -4
 397 0002 82B0     		sub	sp, sp, #8
 398              	.LCFI16:
 399              		.cfi_def_cfa_offset 16
 400 0004 00AF     		add	r7, sp, #0
 401              	.LCFI17:
 402              		.cfi_def_cfa_register 7
 611:.\Generated_Source\PSoC5/cyfitter_cfg.c **** 	uint32 timeout;
 612:.\Generated_Source\PSoC5/cyfitter_cfg.c **** 	uint8 pllLock;
 613:.\Generated_Source\PSoC5/cyfitter_cfg.c **** 
 614:.\Generated_Source\PSoC5/cyfitter_cfg.c **** 
 615:.\Generated_Source\PSoC5/cyfitter_cfg.c **** 	/* Configure Digital Clocks based on settings from Clock DWR */
 616:.\Generated_Source\PSoC5/cyfitter_cfg.c **** 	CY_SET_XTND_REG16((void CYFAR *)(CYREG_CLKDIST_DCFG0_CFG0), 0x0000u);
 403              		.loc 1 616 0
 404 0006 4FF48143 		mov	r3, #16512
 405 000a C4F20003 		movt	r3, 16384
 406 000e 4FF00002 		mov	r2, #0
 407 0012 1A80     		strh	r2, [r3, #0]	@ movhi
 617:.\Generated_Source\PSoC5/cyfitter_cfg.c **** 	CY_SET_XTND_REG8((void CYFAR *)(CYREG_CLKDIST_DCFG0_CFG0 + 0x2u), 0x50u);
ARM GAS  D:\Users\BertoTech\TEMP\ccXSXt9C.s 			page 19


 408              		.loc 1 617 0
 409 0014 44F28203 		movw	r3, #16514
 410 0018 C4F20003 		movt	r3, 16384
 411 001c 4FF05002 		mov	r2, #80
 412 0020 1A70     		strb	r2, [r3, #0]
 618:.\Generated_Source\PSoC5/cyfitter_cfg.c **** 	CY_SET_XTND_REG16((void CYFAR *)(CYREG_CLKDIST_DCFG1_CFG0), 0x0001u);
 413              		.loc 1 618 0
 414 0022 44F28403 		movw	r3, #16516
 415 0026 C4F20003 		movt	r3, 16384
 416 002a 4FF00102 		mov	r2, #1
 417 002e 1A80     		strh	r2, [r3, #0]	@ movhi
 619:.\Generated_Source\PSoC5/cyfitter_cfg.c **** 	CY_SET_XTND_REG8((void CYFAR *)(CYREG_CLKDIST_DCFG1_CFG0 + 0x2u), 0x18u);
 418              		.loc 1 619 0
 419 0030 44F28603 		movw	r3, #16518
 420 0034 C4F20003 		movt	r3, 16384
 421 0038 4FF01802 		mov	r2, #24
 422 003c 1A70     		strb	r2, [r3, #0]
 620:.\Generated_Source\PSoC5/cyfitter_cfg.c **** 	CY_SET_XTND_REG16((void CYFAR *)(CYREG_CLKDIST_DCFG2_CFG0), 0x0001u);
 423              		.loc 1 620 0
 424 003e 44F28803 		movw	r3, #16520
 425 0042 C4F20003 		movt	r3, 16384
 426 0046 4FF00102 		mov	r2, #1
 427 004a 1A80     		strh	r2, [r3, #0]	@ movhi
 621:.\Generated_Source\PSoC5/cyfitter_cfg.c **** 	CY_SET_XTND_REG8((void CYFAR *)(CYREG_CLKDIST_DCFG2_CFG0 + 0x2u), 0x18u);
 428              		.loc 1 621 0
 429 004c 44F28A03 		movw	r3, #16522
 430 0050 C4F20003 		movt	r3, 16384
 431 0054 4FF01802 		mov	r2, #24
 432 0058 1A70     		strb	r2, [r3, #0]
 622:.\Generated_Source\PSoC5/cyfitter_cfg.c **** 	CY_SET_XTND_REG16((void CYFAR *)(CYREG_CLKDIST_DCFG3_CFG0), 0x0005u);
 433              		.loc 1 622 0
 434 005a 44F28C03 		movw	r3, #16524
 435 005e C4F20003 		movt	r3, 16384
 436 0062 4FF00502 		mov	r2, #5
 437 0066 1A80     		strh	r2, [r3, #0]	@ movhi
 623:.\Generated_Source\PSoC5/cyfitter_cfg.c **** 	CY_SET_XTND_REG8((void CYFAR *)(CYREG_CLKDIST_DCFG3_CFG0 + 0x2u), 0x19u);
 438              		.loc 1 623 0
 439 0068 44F28E03 		movw	r3, #16526
 440 006c C4F20003 		movt	r3, 16384
 441 0070 4FF01902 		mov	r2, #25
 442 0074 1A70     		strb	r2, [r3, #0]
 624:.\Generated_Source\PSoC5/cyfitter_cfg.c **** 	CY_SET_XTND_REG16((void CYFAR *)(CYREG_CLKDIST_DCFG4_CFG0), 0x004Au);
 443              		.loc 1 624 0
 444 0076 44F29003 		movw	r3, #16528
 445 007a C4F20003 		movt	r3, 16384
 446 007e 4FF04A02 		mov	r2, #74
 447 0082 1A80     		strh	r2, [r3, #0]	@ movhi
 625:.\Generated_Source\PSoC5/cyfitter_cfg.c **** 	CY_SET_XTND_REG8((void CYFAR *)(CYREG_CLKDIST_DCFG4_CFG0 + 0x2u), 0x18u);
 448              		.loc 1 625 0
 449 0084 44F29203 		movw	r3, #16530
 450 0088 C4F20003 		movt	r3, 16384
 451 008c 4FF01802 		mov	r2, #24
 452 0090 1A70     		strb	r2, [r3, #0]
 626:.\Generated_Source\PSoC5/cyfitter_cfg.c **** 	CY_SET_XTND_REG16((void CYFAR *)(CYREG_CLKDIST_DCFG5_CFG0), 0x001Du);
 453              		.loc 1 626 0
 454 0092 44F29403 		movw	r3, #16532
 455 0096 C4F20003 		movt	r3, 16384
ARM GAS  D:\Users\BertoTech\TEMP\ccXSXt9C.s 			page 20


 456 009a 4FF01D02 		mov	r2, #29
 457 009e 1A80     		strh	r2, [r3, #0]	@ movhi
 627:.\Generated_Source\PSoC5/cyfitter_cfg.c **** 	CY_SET_XTND_REG8((void CYFAR *)(CYREG_CLKDIST_DCFG5_CFG0 + 0x2u), 0x19u);
 458              		.loc 1 627 0
 459 00a0 44F29603 		movw	r3, #16534
 460 00a4 C4F20003 		movt	r3, 16384
 461 00a8 4FF01902 		mov	r2, #25
 462 00ac 1A70     		strb	r2, [r3, #0]
 628:.\Generated_Source\PSoC5/cyfitter_cfg.c **** 
 629:.\Generated_Source\PSoC5/cyfitter_cfg.c **** 	/* Configure Analog Clocks based on settings from Clock DWR */
 630:.\Generated_Source\PSoC5/cyfitter_cfg.c **** 	CYCONFIGCPY((void CYFAR *)(CYREG_CLKDIST_ACFG0_CFG0), (const void CYFAR *)(BS_CYDEV_CLKDIST_ACFG0_
 463              		.loc 1 630 0
 464 00ae 4FF48240 		mov	r0, #16640
 465 00b2 C4F20000 		movt	r0, 16384
 466 00b6 41F62411 		movw	r1, #6436
 467 00ba C4F60001 		movt	r1, 18432
 468 00be 4FF00402 		mov	r2, #4
 469 00c2 FFF7FEFF 		bl	CYCONFIGCPY
 631:.\Generated_Source\PSoC5/cyfitter_cfg.c **** 
 632:.\Generated_Source\PSoC5/cyfitter_cfg.c **** 	/* Configure ILO based on settings from Clock DWR */
 633:.\Generated_Source\PSoC5/cyfitter_cfg.c **** 	CY_SET_XTND_REG8((void CYFAR *)(CYREG_SLOWCLK_ILO_CR0), 0x02u);
 470              		.loc 1 633 0
 471 00c6 4FF48643 		mov	r3, #17152
 472 00ca C4F20003 		movt	r3, 16384
 473 00ce 4FF00202 		mov	r2, #2
 474 00d2 1A70     		strb	r2, [r3, #0]
 634:.\Generated_Source\PSoC5/cyfitter_cfg.c **** 	CY_SET_XTND_REG8((void CYFAR *)(CYREG_CLKDIST_CR), 0x08u);
 475              		.loc 1 634 0
 476 00d4 4FF04023 		mov	r3, #1073758208
 477 00d8 4FF00802 		mov	r2, #8
 478 00dc 1A70     		strb	r2, [r3, #0]
 635:.\Generated_Source\PSoC5/cyfitter_cfg.c **** 
 636:.\Generated_Source\PSoC5/cyfitter_cfg.c **** 	/* Configure IMO based on settings from Clock DWR */
 637:.\Generated_Source\PSoC5/cyfitter_cfg.c **** 	CY_SET_XTND_REG8((void CYFAR *)(CYREG_FASTCLK_IMO_CR), 0x03u);
 479              		.loc 1 637 0
 480 00de 4FF48443 		mov	r3, #16896
 481 00e2 C4F20003 		movt	r3, 16384
 482 00e6 4FF00302 		mov	r2, #3
 483 00ea 1A70     		strb	r2, [r3, #0]
 638:.\Generated_Source\PSoC5/cyfitter_cfg.c **** 	CY_SET_XTND_REG8((void CYFAR *)(CYREG_IMO_TR1), (CY_GET_XTND_REG8((void CYFAR *)CYREG_FLSHID_CUST_
 484              		.loc 1 638 0
 485 00ec 44F2A163 		movw	r3, #18081
 486 00f0 C4F20003 		movt	r3, 16384
 487 00f4 4FF48472 		mov	r2, #264
 488 00f8 C4F60012 		movt	r2, 18688
 489 00fc 1278     		ldrb	r2, [r2, #0]
 490 00fe D2B2     		uxtb	r2, r2
 491 0100 1A70     		strb	r2, [r3, #0]
 639:.\Generated_Source\PSoC5/cyfitter_cfg.c **** 
 640:.\Generated_Source\PSoC5/cyfitter_cfg.c **** 	/* Configure PLL based on settings from Clock DWR */
 641:.\Generated_Source\PSoC5/cyfitter_cfg.c **** 	CY_SET_XTND_REG16((void CYFAR *)(CYREG_FASTCLK_PLL_P), 0x0008u);
 492              		.loc 1 641 0
 493 0102 44F22223 		movw	r3, #16930
 494 0106 C4F20003 		movt	r3, 16384
 495 010a 4FF00802 		mov	r2, #8
 496 010e 1A80     		strh	r2, [r3, #0]	@ movhi
 642:.\Generated_Source\PSoC5/cyfitter_cfg.c **** 	CY_SET_XTND_REG16((void CYFAR *)(CYREG_FASTCLK_PLL_CFG0), 0x1251u);
ARM GAS  D:\Users\BertoTech\TEMP\ccXSXt9C.s 			page 21


 497              		.loc 1 642 0
 498 0110 44F22023 		movw	r3, #16928
 499 0114 C4F20003 		movt	r3, 16384
 500 0118 41F25122 		movw	r2, #4689
 501 011c 1A80     		strh	r2, [r3, #0]	@ movhi
 643:.\Generated_Source\PSoC5/cyfitter_cfg.c **** 	/* Wait up to 250us for the PLL to lock */
 644:.\Generated_Source\PSoC5/cyfitter_cfg.c **** 	pllLock = 0u;
 502              		.loc 1 644 0
 503 011e 4FF00003 		mov	r3, #0
 504 0122 FB70     		strb	r3, [r7, #3]
 645:.\Generated_Source\PSoC5/cyfitter_cfg.c **** 	for (timeout = 250u / 10u; (timeout > 0u) && (pllLock != 0x03u); timeout--)
 505              		.loc 1 645 0
 506 0124 4FF01903 		mov	r3, #25
 507 0128 7B60     		str	r3, [r7, #4]
 508 012a 19E0     		b	.L16
 509              	.L18:
 646:.\Generated_Source\PSoC5/cyfitter_cfg.c **** 	{ 
 647:.\Generated_Source\PSoC5/cyfitter_cfg.c **** 		pllLock = 0x03u & ((uint8)((uint8)pllLock << 1) | ((CY_GET_XTND_REG8((void CYFAR *)CYREG_FASTCLK_
 510              		.loc 1 647 0 discriminator 1
 511 012c FB78     		ldrb	r3, [r7, #3]
 512 012e 4FEA4303 		lsl	r3, r3, #1
 513 0132 DAB2     		uxtb	r2, r3
 514 0134 44F22523 		movw	r3, #16933
 515 0138 C4F20003 		movt	r3, 16384
 516 013c 1B78     		ldrb	r3, [r3, #0]
 517 013e DBB2     		uxtb	r3, r3
 518 0140 03F00103 		and	r3, r3, #1
 519 0144 DBB2     		uxtb	r3, r3
 520 0146 1343     		orrs	r3, r3, r2
 521 0148 DBB2     		uxtb	r3, r3
 522 014a 03F00303 		and	r3, r3, #3
 523 014e FB70     		strb	r3, [r7, #3]
 648:.\Generated_Source\PSoC5/cyfitter_cfg.c **** 		CyDelayCycles(10u * 48u); /* Delay 10us based on 48MHz clock */
 524              		.loc 1 648 0 discriminator 1
 525 0150 4FF4F070 		mov	r0, #480
 526 0154 FFF7FEFF 		bl	CyDelayCycles
 645:.\Generated_Source\PSoC5/cyfitter_cfg.c **** 	for (timeout = 250u / 10u; (timeout > 0u) && (pllLock != 0x03u); timeout--)
 527              		.loc 1 645 0 discriminator 1
 528 0158 7B68     		ldr	r3, [r7, #4]
 529 015a 03F1FF33 		add	r3, r3, #-1
 530 015e 7B60     		str	r3, [r7, #4]
 531              	.L16:
 532 0160 7B68     		ldr	r3, [r7, #4]
 533 0162 002B     		cmp	r3, #0
 534 0164 02D0     		beq	.L17
 645:.\Generated_Source\PSoC5/cyfitter_cfg.c **** 	for (timeout = 250u / 10u; (timeout > 0u) && (pllLock != 0x03u); timeout--)
 535              		.loc 1 645 0 is_stmt 0 discriminator 2
 536 0166 FB78     		ldrb	r3, [r7, #3]	@ zero_extendqisi2
 537 0168 032B     		cmp	r3, #3
 538 016a DFD1     		bne	.L18
 539              	.L17:
 649:.\Generated_Source\PSoC5/cyfitter_cfg.c **** 	}
 650:.\Generated_Source\PSoC5/cyfitter_cfg.c **** 	/* If we ran out of time the PLL didn't lock so go to the error function */
 651:.\Generated_Source\PSoC5/cyfitter_cfg.c **** 	if (timeout == 0u)
 540              		.loc 1 651 0 is_stmt 1
 541 016c 7B68     		ldr	r3, [r7, #4]
 542 016e 002B     		cmp	r3, #0
ARM GAS  D:\Users\BertoTech\TEMP\ccXSXt9C.s 			page 22


 543 0170 03D1     		bne	.L19
 652:.\Generated_Source\PSoC5/cyfitter_cfg.c **** 	{
 653:.\Generated_Source\PSoC5/cyfitter_cfg.c **** 		CyClockStartupError(CYCLOCKSTART_PLL_ERROR);
 544              		.loc 1 653 0
 545 0172 4FF00300 		mov	r0, #3
 546 0176 FFF7FEFF 		bl	CyClockStartupError
 547              	.L19:
 654:.\Generated_Source\PSoC5/cyfitter_cfg.c **** 	}
 655:.\Generated_Source\PSoC5/cyfitter_cfg.c **** 
 656:.\Generated_Source\PSoC5/cyfitter_cfg.c **** 	/* Configure Bus/Master Clock based on settings from Clock DWR */
 657:.\Generated_Source\PSoC5/cyfitter_cfg.c **** 	CY_SET_XTND_REG16((void CYFAR *)(CYREG_CLKDIST_MSTR0), 0x0100u);
 548              		.loc 1 657 0
 549 017a 44F20403 		movw	r3, #16388
 550 017e C4F20003 		movt	r3, 16384
 551 0182 4FF48072 		mov	r2, #256
 552 0186 1A80     		strh	r2, [r3, #0]	@ movhi
 658:.\Generated_Source\PSoC5/cyfitter_cfg.c **** 	CY_SET_XTND_REG8((void CYFAR *)(CYREG_CLKDIST_MSTR0), 0x07u);
 553              		.loc 1 658 0
 554 0188 44F20403 		movw	r3, #16388
 555 018c C4F20003 		movt	r3, 16384
 556 0190 4FF00702 		mov	r2, #7
 557 0194 1A70     		strb	r2, [r3, #0]
 659:.\Generated_Source\PSoC5/cyfitter_cfg.c **** 	CY_SET_XTND_REG8((void CYFAR *)(CYREG_CLKDIST_BCFG0), 0x00u);
 558              		.loc 1 659 0
 559 0196 44F20603 		movw	r3, #16390
 560 019a C4F20003 		movt	r3, 16384
 561 019e 4FF00002 		mov	r2, #0
 562 01a2 1A70     		strb	r2, [r3, #0]
 660:.\Generated_Source\PSoC5/cyfitter_cfg.c **** 	CY_SET_XTND_REG8((void CYFAR *)(CYREG_CLKDIST_BCFG2), 0x48u);
 563              		.loc 1 660 0
 564 01a4 44F20803 		movw	r3, #16392
 565 01a8 C4F20003 		movt	r3, 16384
 566 01ac 4FF04802 		mov	r2, #72
 567 01b0 1A70     		strb	r2, [r3, #0]
 661:.\Generated_Source\PSoC5/cyfitter_cfg.c **** 	CY_SET_XTND_REG8((void CYFAR *)(CYREG_CLKDIST_MSTR0), 0x00u);
 568              		.loc 1 661 0
 569 01b2 44F20403 		movw	r3, #16388
 570 01b6 C4F20003 		movt	r3, 16384
 571 01ba 4FF00002 		mov	r2, #0
 572 01be 1A70     		strb	r2, [r3, #0]
 662:.\Generated_Source\PSoC5/cyfitter_cfg.c **** 	CY_SET_XTND_REG8((void CYFAR *)(CYREG_CLKDIST_LD), 0x02u);
 573              		.loc 1 662 0
 574 01c0 44F20103 		movw	r3, #16385
 575 01c4 C4F20003 		movt	r3, 16384
 576 01c8 4FF00202 		mov	r2, #2
 577 01cc 1A70     		strb	r2, [r3, #0]
 663:.\Generated_Source\PSoC5/cyfitter_cfg.c **** 	CY_SET_XTND_REG8((void CYFAR *)(CYREG_CLKDIST_DLY1), 0x04u);
 578              		.loc 1 663 0
 579 01ce 44F20B03 		movw	r3, #16395
 580 01d2 C4F20003 		movt	r3, 16384
 581 01d6 4FF00402 		mov	r2, #4
 582 01da 1A70     		strb	r2, [r3, #0]
 664:.\Generated_Source\PSoC5/cyfitter_cfg.c **** 
 665:.\Generated_Source\PSoC5/cyfitter_cfg.c **** 	CY_SET_XTND_REG8((void CYFAR *)(CYREG_PM_ACT_CFG2), ((CY_GET_XTND_REG8((void CYFAR *)CYREG_PM_ACT_
 583              		.loc 1 665 0
 584 01dc 44F2A233 		movw	r3, #17314
 585 01e0 C4F20003 		movt	r3, 16384
ARM GAS  D:\Users\BertoTech\TEMP\ccXSXt9C.s 			page 23


 586 01e4 44F2A232 		movw	r2, #17314
 587 01e8 C4F20002 		movt	r2, 16384
 588 01ec 1278     		ldrb	r2, [r2, #0]
 589 01ee D2B2     		uxtb	r2, r2
 590 01f0 42F03F02 		orr	r2, r2, #63
 591 01f4 D2B2     		uxtb	r2, r2
 592 01f6 1A70     		strb	r2, [r3, #0]
 666:.\Generated_Source\PSoC5/cyfitter_cfg.c **** 	CY_SET_XTND_REG8((void CYFAR *)(CYREG_PM_ACT_CFG1), ((CY_GET_XTND_REG8((void CYFAR *)CYREG_PM_ACT_
 593              		.loc 1 666 0
 594 01f8 44F2A133 		movw	r3, #17313
 595 01fc C4F20003 		movt	r3, 16384
 596 0200 44F2A132 		movw	r2, #17313
 597 0204 C4F20002 		movt	r2, 16384
 598 0208 1278     		ldrb	r2, [r2, #0]
 599 020a D2B2     		uxtb	r2, r2
 600 020c 42F00102 		orr	r2, r2, #1
 601 0210 D2B2     		uxtb	r2, r2
 602 0212 1A70     		strb	r2, [r3, #0]
 667:.\Generated_Source\PSoC5/cyfitter_cfg.c **** 	CY_SET_XTND_REG8((void CYFAR *)(CYREG_PM_ACT_CFG0), ((CY_GET_XTND_REG8((void CYFAR *)CYREG_PM_ACT_
 603              		.loc 1 667 0
 604 0214 44F2A033 		movw	r3, #17312
 605 0218 C4F20003 		movt	r3, 16384
 606 021c 44F2A032 		movw	r2, #17312
 607 0220 C4F20002 		movt	r2, 16384
 608 0224 1278     		ldrb	r2, [r2, #0]
 609 0226 D2B2     		uxtb	r2, r2
 610 0228 62F07F02 		orn	r2, r2, #127
 611 022c D2B2     		uxtb	r2, r2
 612 022e 1A70     		strb	r2, [r3, #0]
 668:.\Generated_Source\PSoC5/cyfitter_cfg.c **** }
 613              		.loc 1 668 0
 614 0230 07F10807 		add	r7, r7, #8
 615 0234 BD46     		mov	sp, r7
 616 0236 80BD     		pop	{r7, pc}
 617              		.cfi_endproc
 618              	.LFE5:
 619              		.size	ClockSetup, .-ClockSetup
 620              		.section	.text.AnalogSetDefault,"ax",%progbits
 621              		.align	2
 622              		.thumb
 623              		.thumb_func
 624              		.type	AnalogSetDefault, %function
 625              	AnalogSetDefault:
 626              	.LFB6:
 669:.\Generated_Source\PSoC5/cyfitter_cfg.c **** 
 670:.\Generated_Source\PSoC5/cyfitter_cfg.c **** 
 671:.\Generated_Source\PSoC5/cyfitter_cfg.c **** /* Analog API Functions */
 672:.\Generated_Source\PSoC5/cyfitter_cfg.c **** 
 673:.\Generated_Source\PSoC5/cyfitter_cfg.c **** 
 674:.\Generated_Source\PSoC5/cyfitter_cfg.c **** /*******************************************************************************
 675:.\Generated_Source\PSoC5/cyfitter_cfg.c **** * Function Name: AnalogSetDefault
 676:.\Generated_Source\PSoC5/cyfitter_cfg.c **** ********************************************************************************
 677:.\Generated_Source\PSoC5/cyfitter_cfg.c **** *
 678:.\Generated_Source\PSoC5/cyfitter_cfg.c **** * Summary:
 679:.\Generated_Source\PSoC5/cyfitter_cfg.c **** *  Sets up the analog portions of the chip to default values based on chip
 680:.\Generated_Source\PSoC5/cyfitter_cfg.c **** *  configuration options from the project.
 681:.\Generated_Source\PSoC5/cyfitter_cfg.c **** *
ARM GAS  D:\Users\BertoTech\TEMP\ccXSXt9C.s 			page 24


 682:.\Generated_Source\PSoC5/cyfitter_cfg.c **** * Parameters:
 683:.\Generated_Source\PSoC5/cyfitter_cfg.c **** *  void
 684:.\Generated_Source\PSoC5/cyfitter_cfg.c **** *
 685:.\Generated_Source\PSoC5/cyfitter_cfg.c **** * Return:
 686:.\Generated_Source\PSoC5/cyfitter_cfg.c **** *  void
 687:.\Generated_Source\PSoC5/cyfitter_cfg.c **** *
 688:.\Generated_Source\PSoC5/cyfitter_cfg.c **** *******************************************************************************/
 689:.\Generated_Source\PSoC5/cyfitter_cfg.c **** static void AnalogSetDefault(void);
 690:.\Generated_Source\PSoC5/cyfitter_cfg.c **** static void AnalogSetDefault(void)
 691:.\Generated_Source\PSoC5/cyfitter_cfg.c **** {
 627              		.loc 1 691 0
 628              		.cfi_startproc
 629              		@ args = 0, pretend = 0, frame = 8
 630              		@ frame_needed = 1, uses_anonymous_args = 0
 631              		@ link register save eliminated.
 632 0000 80B4     		push	{r7}
 633              	.LCFI18:
 634              		.cfi_def_cfa_offset 4
 635              		.cfi_offset 7, -4
 636 0002 83B0     		sub	sp, sp, #12
 637              	.LCFI19:
 638              		.cfi_def_cfa_offset 16
 639 0004 00AF     		add	r7, sp, #0
 640              	.LCFI20:
 641              		.cfi_def_cfa_register 7
 692:.\Generated_Source\PSoC5/cyfitter_cfg.c **** 	uint8 bg_xover_inl_trim = CY_GET_XTND_REG8((void CYFAR *)(CYREG_FLSHID_MFG_CFG_BG_XOVER_INL_TRIM +
 642              		.loc 1 692 0
 643 0006 40F2CF13 		movw	r3, #463
 644 000a C4F60013 		movt	r3, 18688
 645 000e 1B78     		ldrb	r3, [r3, #0]
 646 0010 FB71     		strb	r3, [r7, #7]
 693:.\Generated_Source\PSoC5/cyfitter_cfg.c **** 	CY_SET_XTND_REG8((void CYFAR *)(CYREG_BG_DFT0), (bg_xover_inl_trim & 0x07u));
 647              		.loc 1 693 0
 648 0012 45F66E03 		movw	r3, #22638
 649 0016 C4F20003 		movt	r3, 16384
 650 001a FA79     		ldrb	r2, [r7, #7]
 651 001c 02F00702 		and	r2, r2, #7
 652 0020 D2B2     		uxtb	r2, r2
 653 0022 1A70     		strb	r2, [r3, #0]
 694:.\Generated_Source\PSoC5/cyfitter_cfg.c **** 	CY_SET_XTND_REG8((void CYFAR *)(CYREG_BG_DFT1), ((bg_xover_inl_trim >> 4) & 0x0Fu));
 654              		.loc 1 694 0
 655 0024 45F66F03 		movw	r3, #22639
 656 0028 C4F20003 		movt	r3, 16384
 657 002c FA79     		ldrb	r2, [r7, #7]	@ zero_extendqisi2
 658 002e 4FEA1212 		lsr	r2, r2, #4
 659 0032 D2B2     		uxtb	r2, r2
 660 0034 1A70     		strb	r2, [r3, #0]
 695:.\Generated_Source\PSoC5/cyfitter_cfg.c **** 	CY_SET_XTND_REG8((void CYFAR *)CYREG_PRT0_AG, 0x01u);
 661              		.loc 1 695 0
 662 0036 45F20D13 		movw	r3, #20749
 663 003a C4F20003 		movt	r3, 16384
 664 003e 4FF00102 		mov	r2, #1
 665 0042 1A70     		strb	r2, [r3, #0]
 696:.\Generated_Source\PSoC5/cyfitter_cfg.c **** 	CY_SET_XTND_REG8((void CYFAR *)CYREG_DSM0_SW0, 0x10u);
 666              		.loc 1 696 0
 667 0044 4FF4B643 		mov	r3, #23296
 668 0048 C4F20003 		movt	r3, 16384
ARM GAS  D:\Users\BertoTech\TEMP\ccXSXt9C.s 			page 25


 669 004c 4FF01002 		mov	r2, #16
 670 0050 1A70     		strb	r2, [r3, #0]
 697:.\Generated_Source\PSoC5/cyfitter_cfg.c **** 	CY_SET_XTND_REG8((void CYFAR *)CYREG_PUMP_CR0, 0x44u);
 671              		.loc 1 697 0
 672 0052 45F67603 		movw	r3, #22646
 673 0056 C4F20003 		movt	r3, 16384
 674 005a 4FF04402 		mov	r2, #68
 675 005e 1A70     		strb	r2, [r3, #0]
 698:.\Generated_Source\PSoC5/cyfitter_cfg.c **** }
 676              		.loc 1 698 0
 677 0060 07F10C07 		add	r7, r7, #12
 678 0064 BD46     		mov	sp, r7
 679 0066 80BC     		pop	{r7}
 680 0068 7047     		bx	lr
 681              		.cfi_endproc
 682              	.LFE6:
 683              		.size	AnalogSetDefault, .-AnalogSetDefault
 684 006a 00BF     		.section	.text.SetAnalogRoutingPumps,"ax",%progbits
 685              		.align	2
 686              		.global	SetAnalogRoutingPumps
 687              		.thumb
 688              		.thumb_func
 689              		.type	SetAnalogRoutingPumps, %function
 690              	SetAnalogRoutingPumps:
 691              	.LFB7:
 699:.\Generated_Source\PSoC5/cyfitter_cfg.c **** 
 700:.\Generated_Source\PSoC5/cyfitter_cfg.c **** 
 701:.\Generated_Source\PSoC5/cyfitter_cfg.c **** /*******************************************************************************
 702:.\Generated_Source\PSoC5/cyfitter_cfg.c **** * Function Name: SetAnalogRoutingPumps
 703:.\Generated_Source\PSoC5/cyfitter_cfg.c **** ********************************************************************************
 704:.\Generated_Source\PSoC5/cyfitter_cfg.c **** *
 705:.\Generated_Source\PSoC5/cyfitter_cfg.c **** * Summary:
 706:.\Generated_Source\PSoC5/cyfitter_cfg.c **** * Enables or disables the analog pumps feeding analog routing switches.
 707:.\Generated_Source\PSoC5/cyfitter_cfg.c **** * Intended to be called at startup, based on the Vdda system configuration;
 708:.\Generated_Source\PSoC5/cyfitter_cfg.c **** * may be called during operation when the user informs us that the Vdda voltage
 709:.\Generated_Source\PSoC5/cyfitter_cfg.c **** * crossed the pump threshold.
 710:.\Generated_Source\PSoC5/cyfitter_cfg.c **** *
 711:.\Generated_Source\PSoC5/cyfitter_cfg.c **** * Parameters:
 712:.\Generated_Source\PSoC5/cyfitter_cfg.c **** *  enabled - 1 to enable the pumps, 0 to disable the pumps
 713:.\Generated_Source\PSoC5/cyfitter_cfg.c **** *
 714:.\Generated_Source\PSoC5/cyfitter_cfg.c **** * Return:
 715:.\Generated_Source\PSoC5/cyfitter_cfg.c **** *  void
 716:.\Generated_Source\PSoC5/cyfitter_cfg.c **** *
 717:.\Generated_Source\PSoC5/cyfitter_cfg.c **** *******************************************************************************/
 718:.\Generated_Source\PSoC5/cyfitter_cfg.c **** void SetAnalogRoutingPumps(uint8 enabled)
 719:.\Generated_Source\PSoC5/cyfitter_cfg.c **** {
 692              		.loc 1 719 0
 693              		.cfi_startproc
 694              		@ args = 0, pretend = 0, frame = 16
 695              		@ frame_needed = 1, uses_anonymous_args = 0
 696              		@ link register save eliminated.
 697 0000 80B4     		push	{r7}
 698              	.LCFI21:
 699              		.cfi_def_cfa_offset 4
 700              		.cfi_offset 7, -4
 701 0002 85B0     		sub	sp, sp, #20
 702              	.LCFI22:
ARM GAS  D:\Users\BertoTech\TEMP\ccXSXt9C.s 			page 26


 703              		.cfi_def_cfa_offset 24
 704 0004 00AF     		add	r7, sp, #0
 705              	.LCFI23:
 706              		.cfi_def_cfa_register 7
 707 0006 0346     		mov	r3, r0
 708 0008 FB71     		strb	r3, [r7, #7]
 720:.\Generated_Source\PSoC5/cyfitter_cfg.c **** 	uint8 regValue = CY_GET_XTND_REG8((void CYFAR *)CYREG_PUMP_CR0);
 709              		.loc 1 720 0
 710 000a 45F67603 		movw	r3, #22646
 711 000e C4F20003 		movt	r3, 16384
 712 0012 1B78     		ldrb	r3, [r3, #0]
 713 0014 FB73     		strb	r3, [r7, #15]
 721:.\Generated_Source\PSoC5/cyfitter_cfg.c **** 	if (enabled != 0u)
 714              		.loc 1 721 0
 715 0016 FB79     		ldrb	r3, [r7, #7]	@ zero_extendqisi2
 716 0018 002B     		cmp	r3, #0
 717 001a 04D0     		beq	.L22
 722:.\Generated_Source\PSoC5/cyfitter_cfg.c **** 	{
 723:.\Generated_Source\PSoC5/cyfitter_cfg.c **** 		regValue |= 0x22u;
 718              		.loc 1 723 0
 719 001c FB7B     		ldrb	r3, [r7, #15]
 720 001e 43F02203 		orr	r3, r3, #34
 721 0022 FB73     		strb	r3, [r7, #15]
 722 0024 03E0     		b	.L23
 723              	.L22:
 724:.\Generated_Source\PSoC5/cyfitter_cfg.c **** 	}
 725:.\Generated_Source\PSoC5/cyfitter_cfg.c **** 	else
 726:.\Generated_Source\PSoC5/cyfitter_cfg.c **** 	{
 727:.\Generated_Source\PSoC5/cyfitter_cfg.c **** 		regValue &= (uint8)~0x22u;
 724              		.loc 1 727 0
 725 0026 FB7B     		ldrb	r3, [r7, #15]
 726 0028 23F02203 		bic	r3, r3, #34
 727 002c FB73     		strb	r3, [r7, #15]
 728              	.L23:
 728:.\Generated_Source\PSoC5/cyfitter_cfg.c **** 	}
 729:.\Generated_Source\PSoC5/cyfitter_cfg.c **** 	CY_SET_XTND_REG8((void CYFAR *)CYREG_PUMP_CR0, regValue);
 729              		.loc 1 729 0
 730 002e 45F67603 		movw	r3, #22646
 731 0032 C4F20003 		movt	r3, 16384
 732 0036 FA7B     		ldrb	r2, [r7, #15]
 733 0038 1A70     		strb	r2, [r3, #0]
 730:.\Generated_Source\PSoC5/cyfitter_cfg.c **** }
 734              		.loc 1 730 0
 735 003a 07F11407 		add	r7, r7, #20
 736 003e BD46     		mov	sp, r7
 737 0040 80BC     		pop	{r7}
 738 0042 7047     		bx	lr
 739              		.cfi_endproc
 740              	.LFE7:
 741              		.size	SetAnalogRoutingPumps, .-SetAnalogRoutingPumps
 742              		.global	ADC_DelSig_1_AMux__addrTable
 743              		.section	.rodata
 744              		.align	2
 745              		.type	ADC_DelSig_1_AMux__addrTable, %object
 746              		.size	ADC_DelSig_1_AMux__addrTable, 8
 747              	ADC_DelSig_1_AMux__addrTable:
 748 0000 035B0040 		.word	1073765123
ARM GAS  D:\Users\BertoTech\TEMP\ccXSXt9C.s 			page 27


 749 0004 24430040 		.word	1073759012
 750              		.global	ADC_DelSig_1_AMux__maskTable
 751              		.align	2
 752              		.type	ADC_DelSig_1_AMux__maskTable, %object
 753              		.size	ADC_DelSig_1_AMux__maskTable, 2
 754              	ADC_DelSig_1_AMux__maskTable:
 755 0008 40       		.byte	64
 756 0009 00       		.byte	0
 757              		.section	.text.ADC_DelSig_1_AMux_Set,"ax",%progbits
 758              		.align	2
 759              		.global	ADC_DelSig_1_AMux_Set
 760              		.thumb
 761              		.thumb_func
 762              		.type	ADC_DelSig_1_AMux_Set, %function
 763              	ADC_DelSig_1_AMux_Set:
 764              	.LFB8:
 731:.\Generated_Source\PSoC5/cyfitter_cfg.c **** 
 732:.\Generated_Source\PSoC5/cyfitter_cfg.c **** #define CY_AMUX_UNUSED CYREG_BOOST_SR
 733:.\Generated_Source\PSoC5/cyfitter_cfg.c **** /* This is an implementation detail of the AMux. Code that depends on it may be
 734:.\Generated_Source\PSoC5/cyfitter_cfg.c ****    incompatible with other versions of PSoC Creator. */
 735:.\Generated_Source\PSoC5/cyfitter_cfg.c **** uint8 CYXDATA * const CYCODE ADC_DelSig_1_AMux__addrTable[2] = {
 736:.\Generated_Source\PSoC5/cyfitter_cfg.c **** 	(uint8 CYXDATA *)CYREG_DSM0_SW3, 
 737:.\Generated_Source\PSoC5/cyfitter_cfg.c **** 	(uint8 CYXDATA *)CY_AMUX_UNUSED, 
 738:.\Generated_Source\PSoC5/cyfitter_cfg.c **** };
 739:.\Generated_Source\PSoC5/cyfitter_cfg.c **** 
 740:.\Generated_Source\PSoC5/cyfitter_cfg.c **** /* This is an implementation detail of the AMux. Code that depends on it may be
 741:.\Generated_Source\PSoC5/cyfitter_cfg.c ****    incompatible with other versions of PSoC Creator. */
 742:.\Generated_Source\PSoC5/cyfitter_cfg.c **** const uint8 CYCODE ADC_DelSig_1_AMux__maskTable[2] = {
 743:.\Generated_Source\PSoC5/cyfitter_cfg.c **** 	0x40u, 
 744:.\Generated_Source\PSoC5/cyfitter_cfg.c **** 	0x00u, 
 745:.\Generated_Source\PSoC5/cyfitter_cfg.c **** };
 746:.\Generated_Source\PSoC5/cyfitter_cfg.c **** 
 747:.\Generated_Source\PSoC5/cyfitter_cfg.c **** /*******************************************************************************
 748:.\Generated_Source\PSoC5/cyfitter_cfg.c **** * Function Name: ADC_DelSig_1_AMux_Set
 749:.\Generated_Source\PSoC5/cyfitter_cfg.c **** ********************************************************************************
 750:.\Generated_Source\PSoC5/cyfitter_cfg.c **** * Summary:
 751:.\Generated_Source\PSoC5/cyfitter_cfg.c **** *  This function is used to set a particular channel as active on the AMux.
 752:.\Generated_Source\PSoC5/cyfitter_cfg.c **** *
 753:.\Generated_Source\PSoC5/cyfitter_cfg.c **** * Parameters:  
 754:.\Generated_Source\PSoC5/cyfitter_cfg.c **** *   channel - The mux channel input to set as active
 755:.\Generated_Source\PSoC5/cyfitter_cfg.c **** *
 756:.\Generated_Source\PSoC5/cyfitter_cfg.c **** * Return:
 757:.\Generated_Source\PSoC5/cyfitter_cfg.c **** *   void
 758:.\Generated_Source\PSoC5/cyfitter_cfg.c **** *
 759:.\Generated_Source\PSoC5/cyfitter_cfg.c **** *******************************************************************************/
 760:.\Generated_Source\PSoC5/cyfitter_cfg.c **** void ADC_DelSig_1_AMux_Set(uint8 channel)
 761:.\Generated_Source\PSoC5/cyfitter_cfg.c **** {
 765              		.loc 1 761 0
 766              		.cfi_startproc
 767              		@ args = 0, pretend = 0, frame = 8
 768              		@ frame_needed = 1, uses_anonymous_args = 0
 769              		@ link register save eliminated.
 770 0000 80B4     		push	{r7}
 771              	.LCFI24:
 772              		.cfi_def_cfa_offset 4
 773              		.cfi_offset 7, -4
 774 0002 83B0     		sub	sp, sp, #12
ARM GAS  D:\Users\BertoTech\TEMP\ccXSXt9C.s 			page 28


 775              	.LCFI25:
 776              		.cfi_def_cfa_offset 16
 777 0004 00AF     		add	r7, sp, #0
 778              	.LCFI26:
 779              		.cfi_def_cfa_register 7
 780 0006 0346     		mov	r3, r0
 781 0008 FB71     		strb	r3, [r7, #7]
 762:.\Generated_Source\PSoC5/cyfitter_cfg.c **** 	if (channel < 2)
 782              		.loc 1 762 0
 783 000a FB79     		ldrb	r3, [r7, #7]	@ zero_extendqisi2
 784 000c 012B     		cmp	r3, #1
 785 000e 17D8     		bhi	.L24
 763:.\Generated_Source\PSoC5/cyfitter_cfg.c **** 	{
 764:.\Generated_Source\PSoC5/cyfitter_cfg.c **** 		*ADC_DelSig_1_AMux__addrTable[channel] |= ADC_DelSig_1_AMux__maskTable[channel];
 786              		.loc 1 764 0
 787 0010 FA79     		ldrb	r2, [r7, #7]	@ zero_extendqisi2
 788 0012 40F20003 		movw	r3, #:lower16:ADC_DelSig_1_AMux__addrTable
 789 0016 C0F20003 		movt	r3, #:upper16:ADC_DelSig_1_AMux__addrTable
 790 001a 53F82220 		ldr	r2, [r3, r2, lsl #2]
 791 001e F979     		ldrb	r1, [r7, #7]	@ zero_extendqisi2
 792 0020 40F20003 		movw	r3, #:lower16:ADC_DelSig_1_AMux__addrTable
 793 0024 C0F20003 		movt	r3, #:upper16:ADC_DelSig_1_AMux__addrTable
 794 0028 53F82130 		ldr	r3, [r3, r1, lsl #2]
 795 002c 1978     		ldrb	r1, [r3, #0]	@ zero_extendqisi2
 796 002e F879     		ldrb	r0, [r7, #7]	@ zero_extendqisi2
 797 0030 40F20003 		movw	r3, #:lower16:ADC_DelSig_1_AMux__maskTable
 798 0034 C0F20003 		movt	r3, #:upper16:ADC_DelSig_1_AMux__maskTable
 799 0038 1B5C     		ldrb	r3, [r3, r0]	@ zero_extendqisi2
 800 003a 0B43     		orrs	r3, r3, r1
 801 003c DBB2     		uxtb	r3, r3
 802 003e 1370     		strb	r3, [r2, #0]
 803              	.L24:
 765:.\Generated_Source\PSoC5/cyfitter_cfg.c **** 	}
 766:.\Generated_Source\PSoC5/cyfitter_cfg.c **** }
 804              		.loc 1 766 0
 805 0040 07F10C07 		add	r7, r7, #12
 806 0044 BD46     		mov	sp, r7
 807 0046 80BC     		pop	{r7}
 808 0048 7047     		bx	lr
 809              		.cfi_endproc
 810              	.LFE8:
 811              		.size	ADC_DelSig_1_AMux_Set, .-ADC_DelSig_1_AMux_Set
 812 004a 00BF     		.section	.text.ADC_DelSig_1_AMux_Unset,"ax",%progbits
 813              		.align	2
 814              		.global	ADC_DelSig_1_AMux_Unset
 815              		.thumb
 816              		.thumb_func
 817              		.type	ADC_DelSig_1_AMux_Unset, %function
 818              	ADC_DelSig_1_AMux_Unset:
 819              	.LFB9:
 767:.\Generated_Source\PSoC5/cyfitter_cfg.c **** 
 768:.\Generated_Source\PSoC5/cyfitter_cfg.c **** /*******************************************************************************
 769:.\Generated_Source\PSoC5/cyfitter_cfg.c **** * Function Name: ADC_DelSig_1_AMux_Unset
 770:.\Generated_Source\PSoC5/cyfitter_cfg.c **** ********************************************************************************
 771:.\Generated_Source\PSoC5/cyfitter_cfg.c **** * Summary:
 772:.\Generated_Source\PSoC5/cyfitter_cfg.c **** *  This function is used to clear a particular channel from being active on the
 773:.\Generated_Source\PSoC5/cyfitter_cfg.c **** *  AMux.
ARM GAS  D:\Users\BertoTech\TEMP\ccXSXt9C.s 			page 29


 774:.\Generated_Source\PSoC5/cyfitter_cfg.c **** *
 775:.\Generated_Source\PSoC5/cyfitter_cfg.c **** * Parameters:  
 776:.\Generated_Source\PSoC5/cyfitter_cfg.c **** *   channel - The mux channel input to mark inactive
 777:.\Generated_Source\PSoC5/cyfitter_cfg.c **** *
 778:.\Generated_Source\PSoC5/cyfitter_cfg.c **** * Return:
 779:.\Generated_Source\PSoC5/cyfitter_cfg.c **** *   void
 780:.\Generated_Source\PSoC5/cyfitter_cfg.c **** *
 781:.\Generated_Source\PSoC5/cyfitter_cfg.c **** *******************************************************************************/
 782:.\Generated_Source\PSoC5/cyfitter_cfg.c **** void ADC_DelSig_1_AMux_Unset(uint8 channel)
 783:.\Generated_Source\PSoC5/cyfitter_cfg.c **** {
 820              		.loc 1 783 0
 821              		.cfi_startproc
 822              		@ args = 0, pretend = 0, frame = 8
 823              		@ frame_needed = 1, uses_anonymous_args = 0
 824              		@ link register save eliminated.
 825 0000 80B4     		push	{r7}
 826              	.LCFI27:
 827              		.cfi_def_cfa_offset 4
 828              		.cfi_offset 7, -4
 829 0002 83B0     		sub	sp, sp, #12
 830              	.LCFI28:
 831              		.cfi_def_cfa_offset 16
 832 0004 00AF     		add	r7, sp, #0
 833              	.LCFI29:
 834              		.cfi_def_cfa_register 7
 835 0006 0346     		mov	r3, r0
 836 0008 FB71     		strb	r3, [r7, #7]
 784:.\Generated_Source\PSoC5/cyfitter_cfg.c **** 	if (channel < 2)
 837              		.loc 1 784 0
 838 000a FB79     		ldrb	r3, [r7, #7]	@ zero_extendqisi2
 839 000c 012B     		cmp	r3, #1
 840 000e 1AD8     		bhi	.L26
 785:.\Generated_Source\PSoC5/cyfitter_cfg.c **** 	{
 786:.\Generated_Source\PSoC5/cyfitter_cfg.c **** 		*ADC_DelSig_1_AMux__addrTable[channel] &= (uint8)~ADC_DelSig_1_AMux__maskTable[channel];
 841              		.loc 1 786 0
 842 0010 FA79     		ldrb	r2, [r7, #7]	@ zero_extendqisi2
 843 0012 40F20003 		movw	r3, #:lower16:ADC_DelSig_1_AMux__addrTable
 844 0016 C0F20003 		movt	r3, #:upper16:ADC_DelSig_1_AMux__addrTable
 845 001a 53F82220 		ldr	r2, [r3, r2, lsl #2]
 846 001e F979     		ldrb	r1, [r7, #7]	@ zero_extendqisi2
 847 0020 40F20003 		movw	r3, #:lower16:ADC_DelSig_1_AMux__addrTable
 848 0024 C0F20003 		movt	r3, #:upper16:ADC_DelSig_1_AMux__addrTable
 849 0028 53F82130 		ldr	r3, [r3, r1, lsl #2]
 850 002c 1978     		ldrb	r1, [r3, #0]	@ zero_extendqisi2
 851 002e F879     		ldrb	r0, [r7, #7]	@ zero_extendqisi2
 852 0030 40F20003 		movw	r3, #:lower16:ADC_DelSig_1_AMux__maskTable
 853 0034 C0F20003 		movt	r3, #:upper16:ADC_DelSig_1_AMux__maskTable
 854 0038 1B5C     		ldrb	r3, [r3, r0]	@ zero_extendqisi2
 855 003a 6FEA0303 		mvn	r3, r3
 856 003e DBB2     		uxtb	r3, r3
 857 0040 0B40     		ands	r3, r3, r1
 858 0042 DBB2     		uxtb	r3, r3
 859 0044 1370     		strb	r3, [r2, #0]
 860              	.L26:
 787:.\Generated_Source\PSoC5/cyfitter_cfg.c **** 	}
 788:.\Generated_Source\PSoC5/cyfitter_cfg.c **** }
 861              		.loc 1 788 0
ARM GAS  D:\Users\BertoTech\TEMP\ccXSXt9C.s 			page 30


 862 0046 07F10C07 		add	r7, r7, #12
 863 004a BD46     		mov	sp, r7
 864 004c 80BC     		pop	{r7}
 865 004e 7047     		bx	lr
 866              		.cfi_endproc
 867              	.LFE9:
 868              		.size	ADC_DelSig_1_AMux_Unset, .-ADC_DelSig_1_AMux_Unset
 869              		.section	.text.cyfitter_cfg,"ax",%progbits
 870              		.align	2
 871              		.global	cyfitter_cfg
 872              		.thumb
 873              		.thumb_func
 874              		.type	cyfitter_cfg, %function
 875              	cyfitter_cfg:
 876              	.LFB10:
 789:.\Generated_Source\PSoC5/cyfitter_cfg.c **** 
 790:.\Generated_Source\PSoC5/cyfitter_cfg.c **** 
 791:.\Generated_Source\PSoC5/cyfitter_cfg.c **** 
 792:.\Generated_Source\PSoC5/cyfitter_cfg.c **** /*******************************************************************************
 793:.\Generated_Source\PSoC5/cyfitter_cfg.c **** * Function Name: cyfitter_cfg
 794:.\Generated_Source\PSoC5/cyfitter_cfg.c **** ********************************************************************************
 795:.\Generated_Source\PSoC5/cyfitter_cfg.c **** * Summary:
 796:.\Generated_Source\PSoC5/cyfitter_cfg.c **** *  This function is called by the start-up code for the selected device. It
 797:.\Generated_Source\PSoC5/cyfitter_cfg.c **** *  performs all of the necessary device configuration based on the design
 798:.\Generated_Source\PSoC5/cyfitter_cfg.c **** *  settings.  This includes settings from the Design Wide Resources (DWR) such
 799:.\Generated_Source\PSoC5/cyfitter_cfg.c **** *  as Clocks and Pins as well as any component configuration that is necessary.
 800:.\Generated_Source\PSoC5/cyfitter_cfg.c **** *
 801:.\Generated_Source\PSoC5/cyfitter_cfg.c **** * Parameters:  
 802:.\Generated_Source\PSoC5/cyfitter_cfg.c **** *   void
 803:.\Generated_Source\PSoC5/cyfitter_cfg.c **** *
 804:.\Generated_Source\PSoC5/cyfitter_cfg.c **** * Return:
 805:.\Generated_Source\PSoC5/cyfitter_cfg.c **** *   void
 806:.\Generated_Source\PSoC5/cyfitter_cfg.c **** *
 807:.\Generated_Source\PSoC5/cyfitter_cfg.c **** *******************************************************************************/
 808:.\Generated_Source\PSoC5/cyfitter_cfg.c **** 
 809:.\Generated_Source\PSoC5/cyfitter_cfg.c **** void cyfitter_cfg(void)
 810:.\Generated_Source\PSoC5/cyfitter_cfg.c **** {
 877              		.loc 1 810 0
 878              		.cfi_startproc
 879              		@ args = 0, pretend = 0, frame = 0
 880              		@ frame_needed = 1, uses_anonymous_args = 0
 881 0000 80B5     		push	{r7, lr}
 882              	.LCFI30:
 883              		.cfi_def_cfa_offset 8
 884              		.cfi_offset 7, -8
 885              		.cfi_offset 14, -4
 886 0002 00AF     		add	r7, sp, #0
 887              	.LCFI31:
 888              		.cfi_def_cfa_register 7
 811:.\Generated_Source\PSoC5/cyfitter_cfg.c **** #ifdef CYGlobalIntDisable
 812:.\Generated_Source\PSoC5/cyfitter_cfg.c **** 	/* Disable interrupts by default. Let user enable if/when they want. */
 813:.\Generated_Source\PSoC5/cyfitter_cfg.c **** 	CYGlobalIntDisable
 889              		.loc 1 813 0
 890              	@ 813 ".\Generated_Source\PSoC5\cyfitter_cfg.c" 1
 891 0004 72B6     		CPSID   i
 892              	@ 0 "" 2
 814:.\Generated_Source\PSoC5/cyfitter_cfg.c **** #endif
ARM GAS  D:\Users\BertoTech\TEMP\ccXSXt9C.s 			page 31


 815:.\Generated_Source\PSoC5/cyfitter_cfg.c **** 
 816:.\Generated_Source\PSoC5/cyfitter_cfg.c **** 	/* Enable/Disable Debug functionality based on settings from System DWR */
 817:.\Generated_Source\PSoC5/cyfitter_cfg.c **** 	CY_SET_XTND_REG8((void CYFAR *)CYREG_MLOGIC_DEBUG, (CY_GET_XTND_REG8((void CYFAR *)CYREG_MLOGIC_DE
 893              		.loc 1 817 0
 894              		.thumb
 895 0006 44F2E863 		movw	r3, #18152
 896 000a C4F20003 		movt	r3, 16384
 897 000e 44F2E862 		movw	r2, #18152
 898 0012 C4F20002 		movt	r2, 16384
 899 0016 1278     		ldrb	r2, [r2, #0]
 900 0018 D2B2     		uxtb	r2, r2
 901 001a 42F00402 		orr	r2, r2, #4
 902 001e D2B2     		uxtb	r2, r2
 903 0020 1A70     		strb	r2, [r3, #0]
 818:.\Generated_Source\PSoC5/cyfitter_cfg.c **** 
 819:.\Generated_Source\PSoC5/cyfitter_cfg.c **** 	{
 820:.\Generated_Source\PSoC5/cyfitter_cfg.c **** 		cfg_dma_init();
 904              		.loc 1 820 0
 905 0022 FFF7FEFF 		bl	cfg_dma_init
 821:.\Generated_Source\PSoC5/cyfitter_cfg.c **** 
 822:.\Generated_Source\PSoC5/cyfitter_cfg.c **** 		/* Perform normal device configuration. Order is not critical for these items. */
 823:.\Generated_Source\PSoC5/cyfitter_cfg.c **** 		CY_SET_XTND_REG8((void CYFAR *)(CYREG_DSM0_CR3), 0x0Au);
 906              		.loc 1 823 0
 907 0026 45F68303 		movw	r3, #22659
 908 002a C4F20003 		movt	r3, 16384
 909 002e 4FF00A02 		mov	r2, #10
 910 0032 1A70     		strb	r2, [r3, #0]
 824:.\Generated_Source\PSoC5/cyfitter_cfg.c **** 		CYMEMZERO((void CYFAR *)(CYREG_PHUB_CFGMEM0_CFG0), 4u);
 911              		.loc 1 824 0
 912 0034 4FF4EC40 		mov	r0, #30208
 913 0038 C4F20000 		movt	r0, 16384
 914 003c 4FF00401 		mov	r1, #4
 915 0040 FFF7FEFF 		bl	CYMEMZERO
 825:.\Generated_Source\PSoC5/cyfitter_cfg.c **** 
 826:.\Generated_Source\PSoC5/cyfitter_cfg.c **** 		/* Enable digital routing */
 827:.\Generated_Source\PSoC5/cyfitter_cfg.c **** 		CY_SET_XTND_REG8((void CYFAR *)CYREG_BCTL0_BANK_CTL, CY_GET_XTND_REG8((void CYFAR *)CYREG_BCTL0_B
 916              		.loc 1 827 0
 917 0044 45F20303 		movw	r3, #20483
 918 0048 C4F20103 		movt	r3, 16385
 919 004c 45F20302 		movw	r2, #20483
 920 0050 C4F20102 		movt	r2, 16385
 921 0054 1278     		ldrb	r2, [r2, #0]
 922 0056 D2B2     		uxtb	r2, r2
 923 0058 42F00202 		orr	r2, r2, #2
 924 005c D2B2     		uxtb	r2, r2
 925 005e 1A70     		strb	r2, [r3, #0]
 828:.\Generated_Source\PSoC5/cyfitter_cfg.c **** 		CY_SET_XTND_REG8((void CYFAR *)CYREG_BCTL1_BANK_CTL, CY_GET_XTND_REG8((void CYFAR *)CYREG_BCTL1_B
 926              		.loc 1 828 0
 927 0060 45F21303 		movw	r3, #20499
 928 0064 C4F20103 		movt	r3, 16385
 929 0068 45F21302 		movw	r2, #20499
 930 006c C4F20102 		movt	r2, 16385
 931 0070 1278     		ldrb	r2, [r2, #0]
 932 0072 D2B2     		uxtb	r2, r2
 933 0074 42F00202 		orr	r2, r2, #2
 934 0078 D2B2     		uxtb	r2, r2
 935 007a 1A70     		strb	r2, [r3, #0]
ARM GAS  D:\Users\BertoTech\TEMP\ccXSXt9C.s 			page 32


 829:.\Generated_Source\PSoC5/cyfitter_cfg.c **** 
 830:.\Generated_Source\PSoC5/cyfitter_cfg.c **** 		/* Enable UDB array */
 831:.\Generated_Source\PSoC5/cyfitter_cfg.c **** 		CY_SET_XTND_REG8((void CYFAR *)CYREG_PM_ACT_CFG0, CY_GET_XTND_REG8((void CYFAR *)CYREG_PM_ACT_CFG
 936              		.loc 1 831 0
 937 007c 44F2A033 		movw	r3, #17312
 938 0080 C4F20003 		movt	r3, 16384
 939 0084 44F2A032 		movw	r2, #17312
 940 0088 C4F20002 		movt	r2, 16384
 941 008c 1278     		ldrb	r2, [r2, #0]
 942 008e D2B2     		uxtb	r2, r2
 943 0090 42F04002 		orr	r2, r2, #64
 944 0094 D2B2     		uxtb	r2, r2
 945 0096 1A70     		strb	r2, [r3, #0]
 832:.\Generated_Source\PSoC5/cyfitter_cfg.c **** 		CY_SET_XTND_REG8((void CYFAR *)CYREG_PM_AVAIL_CR2, CY_GET_XTND_REG8((void CYFAR *)CYREG_PM_AVAIL_
 946              		.loc 1 832 0
 947 0098 44F2C233 		movw	r3, #17346
 948 009c C4F20003 		movt	r3, 16384
 949 00a0 44F2C232 		movw	r2, #17346
 950 00a4 C4F20002 		movt	r2, 16384
 951 00a8 1278     		ldrb	r2, [r2, #0]
 952 00aa D2B2     		uxtb	r2, r2
 953 00ac 42F01002 		orr	r2, r2, #16
 954 00b0 D2B2     		uxtb	r2, r2
 955 00b2 1A70     		strb	r2, [r3, #0]
 833:.\Generated_Source\PSoC5/cyfitter_cfg.c **** 	}
 834:.\Generated_Source\PSoC5/cyfitter_cfg.c **** 
 835:.\Generated_Source\PSoC5/cyfitter_cfg.c **** 	/* Perform second pass device configuration. These items must be configured in specific order afte
 836:.\Generated_Source\PSoC5/cyfitter_cfg.c **** 	CYCONFIGCPY((void CYFAR *)(CYREG_PRT0_DM0), (const void CYFAR *)(BS_IOPINS0_0_VAL), 8u);
 956              		.loc 1 836 0
 957 00b4 45F20210 		movw	r0, #20738
 958 00b8 C4F20000 		movt	r0, 16384
 959 00bc 4FF4C851 		mov	r1, #6400
 960 00c0 C4F60001 		movt	r1, 18432
 961 00c4 4FF00802 		mov	r2, #8
 962 00c8 FFF7FEFF 		bl	CYCONFIGCPY
 837:.\Generated_Source\PSoC5/cyfitter_cfg.c **** 	CYCONFIGCPY((void CYFAR *)(CYREG_PRT1_DM0), (const void CYFAR *)(BS_IOPINS0_1_VAL), 8u);
 963              		.loc 1 837 0
 964 00cc 45F21210 		movw	r0, #20754
 965 00d0 C4F20000 		movt	r0, 16384
 966 00d4 41F60811 		movw	r1, #6408
 967 00d8 C4F60001 		movt	r1, 18432
 968 00dc 4FF00802 		mov	r2, #8
 969 00e0 FFF7FEFF 		bl	CYCONFIGCPY
 838:.\Generated_Source\PSoC5/cyfitter_cfg.c **** 	CYCONFIGCPY((void CYFAR *)(CYREG_PRT2_DM0), (const void CYFAR *)(BS_IOPINS0_2_VAL), 8u);
 970              		.loc 1 838 0
 971 00e4 45F22210 		movw	r0, #20770
 972 00e8 C4F20000 		movt	r0, 16384
 973 00ec 41F61011 		movw	r1, #6416
 974 00f0 C4F60001 		movt	r1, 18432
 975 00f4 4FF00802 		mov	r2, #8
 976 00f8 FFF7FEFF 		bl	CYCONFIGCPY
 839:.\Generated_Source\PSoC5/cyfitter_cfg.c **** 	CYCONFIGCPY((void CYFAR *)(CYREG_PRT3_DR), (const void CYFAR *)(BS_IOPINS0_3_VAL), 10u);
 977              		.loc 1 839 0
 978 00fc 45F23010 		movw	r0, #20784
 979 0100 C4F20000 		movt	r0, 16384
 980 0104 41F61811 		movw	r1, #6424
 981 0108 C4F60001 		movt	r1, 18432
ARM GAS  D:\Users\BertoTech\TEMP\ccXSXt9C.s 			page 33


 982 010c 4FF00A02 		mov	r2, #10
 983 0110 FFF7FEFF 		bl	CYCONFIGCPY
 840:.\Generated_Source\PSoC5/cyfitter_cfg.c **** 
 841:.\Generated_Source\PSoC5/cyfitter_cfg.c **** 	/* Switch Boost to the precision bandgap reference from its internal reference */
 842:.\Generated_Source\PSoC5/cyfitter_cfg.c **** 	CY_SET_REG8((void CYXDATA *)CYREG_BOOST_CR2, (CY_GET_REG8((void CYXDATA *)CYREG_BOOST_CR2) | 0x08u
 984              		.loc 1 842 0
 985 0114 44F22233 		movw	r3, #17186
 986 0118 C4F20003 		movt	r3, 16384
 987 011c 44F22232 		movw	r2, #17186
 988 0120 C4F20002 		movt	r2, 16384
 989 0124 1278     		ldrb	r2, [r2, #0]
 990 0126 D2B2     		uxtb	r2, r2
 991 0128 42F00802 		orr	r2, r2, #8
 992 012c D2B2     		uxtb	r2, r2
 993 012e 1A70     		strb	r2, [r3, #0]
 843:.\Generated_Source\PSoC5/cyfitter_cfg.c **** 
 844:.\Generated_Source\PSoC5/cyfitter_cfg.c **** 	/* Set Flash Cycles based on max possible frequency in case a glitch occurs during ClockSetup(). *
 845:.\Generated_Source\PSoC5/cyfitter_cfg.c **** 	CY_SET_XTND_REG8((void CYFAR *)(CYREG_CACHE_CC_CTL), (((CYDEV_INSTRUCT_CACHE_ENABLED) != 0) ? 0x01
 994              		.loc 1 845 0
 995 0130 4FF49043 		mov	r3, #18432
 996 0134 C4F20003 		movt	r3, 16384
 997 0138 4FF00102 		mov	r2, #1
 998 013c 1A70     		strb	r2, [r3, #0]
 846:.\Generated_Source\PSoC5/cyfitter_cfg.c **** 	/* Setup clocks based on selections from Clock DWR */
 847:.\Generated_Source\PSoC5/cyfitter_cfg.c **** 	ClockSetup();
 999              		.loc 1 847 0
 1000 013e FFF7FEFF 		bl	ClockSetup
 848:.\Generated_Source\PSoC5/cyfitter_cfg.c **** 	/* Set Flash Cycles based on newly configured 24.00MHz Bus Clock. */
 849:.\Generated_Source\PSoC5/cyfitter_cfg.c **** 	CY_SET_XTND_REG8((void CYFAR *)(CYREG_CACHE_CC_CTL), (((CYDEV_INSTRUCT_CACHE_ENABLED) != 0) ? 0x81
 1001              		.loc 1 849 0
 1002 0142 4FF49043 		mov	r3, #18432
 1003 0146 C4F20003 		movt	r3, 16384
 1004 014a 4FF08102 		mov	r2, #129
 1005 014e 1A70     		strb	r2, [r3, #0]
 850:.\Generated_Source\PSoC5/cyfitter_cfg.c **** 	CY_SET_XTND_REG8((void CYFAR *)(CYREG_PANTHER_WAITPIPE), 0x01u);
 1006              		.loc 1 850 0
 1007 0150 4FF00403 		mov	r3, #4
 1008 0154 C4F20803 		movt	r3, 16392
 1009 0158 4FF00102 		mov	r2, #1
 1010 015c 1A70     		strb	r2, [r3, #0]
 851:.\Generated_Source\PSoC5/cyfitter_cfg.c **** 
 852:.\Generated_Source\PSoC5/cyfitter_cfg.c **** 	/* Perform basic analog initialization to defaults */
 853:.\Generated_Source\PSoC5/cyfitter_cfg.c **** 	AnalogSetDefault();
 1011              		.loc 1 853 0
 1012 015e FFF7FEFF 		bl	AnalogSetDefault
 854:.\Generated_Source\PSoC5/cyfitter_cfg.c **** 
 855:.\Generated_Source\PSoC5/cyfitter_cfg.c **** 	/* Configure alternate active mode */
 856:.\Generated_Source\PSoC5/cyfitter_cfg.c **** 	CYCONFIGCPY((void CYFAR *)CYDEV_PM_STBY_BASE, (const void CYFAR *)CYDEV_PM_ACT_BASE, 14u);
 1013              		.loc 1 856 0
 1014 0162 44F2B030 		movw	r0, #17328
 1015 0166 C4F20000 		movt	r0, 16384
 1016 016a 44F2A031 		movw	r1, #17312
 1017 016e C4F20001 		movt	r1, 16384
 1018 0172 4FF00E02 		mov	r2, #14
 1019 0176 FFF7FEFF 		bl	CYCONFIGCPY
 857:.\Generated_Source\PSoC5/cyfitter_cfg.c **** }
 1020              		.loc 1 857 0
ARM GAS  D:\Users\BertoTech\TEMP\ccXSXt9C.s 			page 34


 1021 017a 80BD     		pop	{r7, pc}
 1022              		.cfi_endproc
 1023              	.LFE10:
 1024              		.size	cyfitter_cfg, .-cyfitter_cfg
 1025              		.bss
 1026              		.align	3
 1027              	DMA_ZERO_VAL.4782:
 1028 0000 00000000 		.space	4
 1029 0004 00000000 		.section	.dma_init,"a",%progbits
 1030              		.align	2
 1031              		.type	CFG_TD_LIST0.4783, %object
 1032              		.size	CFG_TD_LIST0.4783, 608
 1033              	CFG_TD_LIST0.4783:
 1034 0000 0800     		.short	8
 1035 0002 02       		.byte	2
 1036 0003 23       		.byte	35
 1037 0004 0000     		.short	0
 1038 0006 0876     		.short	30216
 1039 0008 0800     		.short	8
 1040 000a 03       		.byte	3
 1041 000b 23       		.byte	35
 1042 000c 0000     		.short	0
 1043 000e 1076     		.short	30224
 1044 0010 0800     		.short	8
 1045 0012 04       		.byte	4
 1046 0013 23       		.byte	35
 1047 0014 0000     		.short	0
 1048 0016 2876     		.short	30248
 1049 0018 0800     		.short	8
 1050 001a 05       		.byte	5
 1051 001b 23       		.byte	35
 1052 001c 0000     		.short	0
 1053 001e 3076     		.short	30256
 1054 0020 0500     		.short	5
 1055 0022 06       		.byte	6
 1056 0023 23       		.byte	35
 1057 0024 0000     		.short	0
 1058 0026 2070     		.short	28704
 1059 0028 0500     		.short	5
 1060 002a 07       		.byte	7
 1061 002b 23       		.byte	35
 1062 002c 0000     		.short	0
 1063 002e 3070     		.short	28720
 1064 0030 0500     		.short	5
 1065 0032 08       		.byte	8
 1066 0033 23       		.byte	35
 1067 0034 0000     		.short	0
 1068 0036 6070     		.short	28768
 1069 0038 0500     		.short	5
 1070 003a FE       		.byte	-2
 1071 003b 23       		.byte	35
 1072 003c 0000     		.short	0
 1073 003e 7070     		.short	28784
 1074 0040 3000     		.short	48
 1075 0042 0A       		.byte	10
 1076 0043 22       		.byte	34
 1077 0044 0000     		.short	0
ARM GAS  D:\Users\BertoTech\TEMP\ccXSXt9C.s 			page 35


 1078 0046 4051     		.short	20800
 1079 0048 1000     		.short	16
 1080 004a 0B       		.byte	11
 1081 004b 22       		.byte	34
 1082 004c 0000     		.short	0
 1083 004e C051     		.short	20928
 1084 0050 1000     		.short	16
 1085 0052 FE       		.byte	-2
 1086 0053 22       		.byte	34
 1087 0054 0000     		.short	0
 1088 0056 F051     		.short	20976
 1089 0058 8003     		.short	896
 1090 005a 0D       		.byte	13
 1091 005b 22       		.byte	34
 1092 005c 0000     		.short	0
 1093 005e 0000     		.short	0
 1094 0060 8000     		.short	128
 1095 0062 0E       		.byte	14
 1096 0063 22       		.byte	34
 1097 0064 0000     		.short	0
 1098 0066 800A     		.short	2688
 1099 0068 8004     		.short	1152
 1100 006a 0F       		.byte	15
 1101 006b 22       		.byte	34
 1102 006c 0000     		.short	0
 1103 006e 800B     		.short	2944
 1104 0070 8000     		.short	128
 1105 0072 10       		.byte	16
 1106 0073 22       		.byte	34
 1107 0074 0000     		.short	0
 1108 0076 0041     		.short	16640
 1109 0078 8000     		.short	128
 1110 007a 11       		.byte	17
 1111 007b 22       		.byte	34
 1112 007c 0000     		.short	0
 1113 007e 0042     		.short	16896
 1114 0080 8000     		.short	128
 1115 0082 12       		.byte	18
 1116 0083 22       		.byte	34
 1117 0084 0000     		.short	0
 1118 0086 0043     		.short	17152
 1119 0088 8000     		.short	128
 1120 008a 13       		.byte	19
 1121 008b 22       		.byte	34
 1122 008c 0000     		.short	0
 1123 008e 0045     		.short	17664
 1124 0090 8000     		.short	128
 1125 0092 14       		.byte	20
 1126 0093 22       		.byte	34
 1127 0094 0000     		.short	0
 1128 0096 0047     		.short	18176
 1129 0098 8000     		.short	128
 1130 009a FE       		.byte	-2
 1131 009b 22       		.byte	34
 1132 009c 0000     		.short	0
 1133 009e 004D     		.short	19712
 1134 00a0 0700     		.short	7
ARM GAS  D:\Users\BertoTech\TEMP\ccXSXt9C.s 			page 36


 1135 00a2 16       		.byte	22
 1136 00a3 23       		.byte	35
 1137 00a4 0000     		.short	0
 1138 00a6 0852     		.short	21000
 1139 00a8 0700     		.short	7
 1140 00aa 17       		.byte	23
 1141 00ab 23       		.byte	35
 1142 00ac 0000     		.short	0
 1143 00ae 1852     		.short	21016
 1144 00b0 2000     		.short	32
 1145 00b2 18       		.byte	24
 1146 00b3 23       		.byte	35
 1147 00b4 0000     		.short	0
 1148 00b6 7064     		.short	25712
 1149 00b8 2000     		.short	32
 1150 00ba FE       		.byte	-2
 1151 00bb 23       		.byte	35
 1152 00bc 0000     		.short	0
 1153 00be 7065     		.short	25968
 1154 00c0 0800     		.short	8
 1155 00c2 1A       		.byte	26
 1156 00c3 23       		.byte	35
 1157 00c4 0000     		.short	0
 1158 00c6 0051     		.short	20736
 1159 00c8 8000     		.short	128
 1160 00ca 1B       		.byte	27
 1161 00cb 23       		.byte	35
 1162 00cc 0000     		.short	0
 1163 00ce 0004     		.short	1024
 1164 00d0 8000     		.short	128
 1165 00d2 1C       		.byte	28
 1166 00d3 23       		.byte	35
 1167 00d4 0000     		.short	0
 1168 00d6 8004     		.short	1152
 1169 00d8 8000     		.short	128
 1170 00da 1D       		.byte	29
 1171 00db 23       		.byte	35
 1172 00dc 0000     		.short	0
 1173 00de 0006     		.short	1536
 1174 00e0 8000     		.short	128
 1175 00e2 1E       		.byte	30
 1176 00e3 23       		.byte	35
 1177 00e4 0000     		.short	0
 1178 00e6 8006     		.short	1664
 1179 00e8 8000     		.short	128
 1180 00ea 1F       		.byte	31
 1181 00eb 23       		.byte	35
 1182 00ec 0000     		.short	0
 1183 00ee 0008     		.short	2048
 1184 00f0 8000     		.short	128
 1185 00f2 20       		.byte	32
 1186 00f3 23       		.byte	35
 1187 00f4 0000     		.short	0
 1188 00f6 8008     		.short	2176
 1189 00f8 8000     		.short	128
 1190 00fa 21       		.byte	33
 1191 00fb 23       		.byte	35
ARM GAS  D:\Users\BertoTech\TEMP\ccXSXt9C.s 			page 37


 1192 00fc 0000     		.short	0
 1193 00fe 000A     		.short	2560
 1194 0100 8000     		.short	128
 1195 0102 22       		.byte	34
 1196 0103 23       		.byte	35
 1197 0104 0000     		.short	0
 1198 0106 0014     		.short	5120
 1199 0108 8000     		.short	128
 1200 010a 23       		.byte	35
 1201 010b 23       		.byte	35
 1202 010c 0000     		.short	0
 1203 010e 8014     		.short	5248
 1204 0110 8000     		.short	128
 1205 0112 24       		.byte	36
 1206 0113 23       		.byte	35
 1207 0114 0000     		.short	0
 1208 0116 0016     		.short	5632
 1209 0118 8000     		.short	128
 1210 011a 25       		.byte	37
 1211 011b 23       		.byte	35
 1212 011c 0000     		.short	0
 1213 011e 8016     		.short	5760
 1214 0120 8000     		.short	128
 1215 0122 26       		.byte	38
 1216 0123 23       		.byte	35
 1217 0124 0000     		.short	0
 1218 0126 0018     		.short	6144
 1219 0128 8000     		.short	128
 1220 012a 27       		.byte	39
 1221 012b 23       		.byte	35
 1222 012c 0000     		.short	0
 1223 012e 8018     		.short	6272
 1224 0130 8000     		.short	128
 1225 0132 28       		.byte	40
 1226 0133 23       		.byte	35
 1227 0134 0000     		.short	0
 1228 0136 001A     		.short	6656
 1229 0138 8000     		.short	128
 1230 013a 29       		.byte	41
 1231 013b 23       		.byte	35
 1232 013c 0000     		.short	0
 1233 013e 801A     		.short	6784
 1234 0140 1000     		.short	16
 1235 0142 2A       		.byte	42
 1236 0143 23       		.byte	35
 1237 0144 0000     		.short	0
 1238 0146 1050     		.short	20496
 1239 0148 1000     		.short	16
 1240 014a 2B       		.byte	43
 1241 014b 23       		.byte	35
 1242 014c 0000     		.short	0
 1243 014e 0050     		.short	20480
 1244 0150 8000     		.short	128
 1245 0152 2C       		.byte	44
 1246 0153 23       		.byte	35
 1247 0154 0000     		.short	0
 1248 0156 804D     		.short	19840
ARM GAS  D:\Users\BertoTech\TEMP\ccXSXt9C.s 			page 38


 1249 0158 8000     		.short	128
 1250 015a 2D       		.byte	45
 1251 015b 23       		.byte	35
 1252 015c 0000     		.short	0
 1253 015e 004C     		.short	19456
 1254 0160 8000     		.short	128
 1255 0162 2E       		.byte	46
 1256 0163 23       		.byte	35
 1257 0164 0000     		.short	0
 1258 0166 804C     		.short	19584
 1259 0168 8000     		.short	128
 1260 016a 2F       		.byte	47
 1261 016b 23       		.byte	35
 1262 016c 0000     		.short	0
 1263 016e 8047     		.short	18304
 1264 0170 8000     		.short	128
 1265 0172 30       		.byte	48
 1266 0173 23       		.byte	35
 1267 0174 0000     		.short	0
 1268 0176 0046     		.short	17920
 1269 0178 8000     		.short	128
 1270 017a 31       		.byte	49
 1271 017b 23       		.byte	35
 1272 017c 0000     		.short	0
 1273 017e 8046     		.short	18048
 1274 0180 8000     		.short	128
 1275 0182 32       		.byte	50
 1276 0183 23       		.byte	35
 1277 0184 0000     		.short	0
 1278 0186 8045     		.short	17792
 1279 0188 8000     		.short	128
 1280 018a 33       		.byte	51
 1281 018b 23       		.byte	35
 1282 018c 0000     		.short	0
 1283 018e 0044     		.short	17408
 1284 0190 8000     		.short	128
 1285 0192 34       		.byte	52
 1286 0193 23       		.byte	35
 1287 0194 0000     		.short	0
 1288 0196 8044     		.short	17536
 1289 0198 8000     		.short	128
 1290 019a 35       		.byte	53
 1291 019b 23       		.byte	35
 1292 019c 0000     		.short	0
 1293 019e 001B     		.short	6912
 1294 01a0 8000     		.short	128
 1295 01a2 36       		.byte	54
 1296 01a3 23       		.byte	35
 1297 01a4 0000     		.short	0
 1298 01a6 801B     		.short	7040
 1299 01a8 8000     		.short	128
 1300 01aa 37       		.byte	55
 1301 01ab 23       		.byte	35
 1302 01ac 0000     		.short	0
 1303 01ae 0015     		.short	5376
 1304 01b0 8000     		.short	128
 1305 01b2 38       		.byte	56
ARM GAS  D:\Users\BertoTech\TEMP\ccXSXt9C.s 			page 39


 1306 01b3 23       		.byte	35
 1307 01b4 0000     		.short	0
 1308 01b6 8015     		.short	5504
 1309 01b8 8000     		.short	128
 1310 01ba 39       		.byte	57
 1311 01bb 23       		.byte	35
 1312 01bc 0000     		.short	0
 1313 01be 0019     		.short	6400
 1314 01c0 8000     		.short	128
 1315 01c2 3A       		.byte	58
 1316 01c3 23       		.byte	35
 1317 01c4 0000     		.short	0
 1318 01c6 8019     		.short	6528
 1319 01c8 8000     		.short	128
 1320 01ca 3B       		.byte	59
 1321 01cb 23       		.byte	35
 1322 01cc 0000     		.short	0
 1323 01ce 0017     		.short	5888
 1324 01d0 8000     		.short	128
 1325 01d2 3C       		.byte	60
 1326 01d3 23       		.byte	35
 1327 01d4 0000     		.short	0
 1328 01d6 8017     		.short	6016
 1329 01d8 8000     		.short	128
 1330 01da 3D       		.byte	61
 1331 01db 23       		.byte	35
 1332 01dc 0000     		.short	0
 1333 01de 0009     		.short	2304
 1334 01e0 8000     		.short	128
 1335 01e2 3E       		.byte	62
 1336 01e3 23       		.byte	35
 1337 01e4 0000     		.short	0
 1338 01e6 8009     		.short	2432
 1339 01e8 8000     		.short	128
 1340 01ea 3F       		.byte	63
 1341 01eb 23       		.byte	35
 1342 01ec 0000     		.short	0
 1343 01ee 0007     		.short	1792
 1344 01f0 8000     		.short	128
 1345 01f2 40       		.byte	64
 1346 01f3 23       		.byte	35
 1347 01f4 0000     		.short	0
 1348 01f6 8007     		.short	1920
 1349 01f8 8000     		.short	128
 1350 01fa 41       		.byte	65
 1351 01fb 23       		.byte	35
 1352 01fc 0000     		.short	0
 1353 01fe 000B     		.short	2816
 1354 0200 8000     		.short	128
 1355 0202 42       		.byte	66
 1356 0203 23       		.byte	35
 1357 0204 0000     		.short	0
 1358 0206 0005     		.short	1280
 1359 0208 8000     		.short	128
 1360 020a 43       		.byte	67
 1361 020b 23       		.byte	35
 1362 020c 0000     		.short	0
ARM GAS  D:\Users\BertoTech\TEMP\ccXSXt9C.s 			page 40


 1363 020e 8005     		.short	1408
 1364 0210 8000     		.short	128
 1365 0212 44       		.byte	68
 1366 0213 23       		.byte	35
 1367 0214 0000     		.short	0
 1368 0216 8003     		.short	896
 1369 0218 8000     		.short	128
 1370 021a 45       		.byte	69
 1371 021b 23       		.byte	35
 1372 021c 0000     		.short	0
 1373 021e 0049     		.short	18688
 1374 0220 8000     		.short	128
 1375 0222 46       		.byte	70
 1376 0223 23       		.byte	35
 1377 0224 0000     		.short	0
 1378 0226 8049     		.short	18816
 1379 0228 8000     		.short	128
 1380 022a 47       		.byte	71
 1381 022b 23       		.byte	35
 1382 022c 0000     		.short	0
 1383 022e 0048     		.short	18432
 1384 0230 8000     		.short	128
 1385 0232 48       		.byte	72
 1386 0233 23       		.byte	35
 1387 0234 0000     		.short	0
 1388 0236 8048     		.short	18560
 1389 0238 8000     		.short	128
 1390 023a 49       		.byte	73
 1391 023b 23       		.byte	35
 1392 023c 0000     		.short	0
 1393 023e 8043     		.short	17280
 1394 0240 8000     		.short	128
 1395 0242 4A       		.byte	74
 1396 0243 23       		.byte	35
 1397 0244 0000     		.short	0
 1398 0246 8042     		.short	17024
 1399 0248 8000     		.short	128
 1400 024a 4B       		.byte	75
 1401 024b 23       		.byte	35
 1402 024c 0000     		.short	0
 1403 024e 8041     		.short	16768
 1404 0250 8000     		.short	128
 1405 0252 4C       		.byte	76
 1406 0253 23       		.byte	35
 1407 0254 0000     		.short	0
 1408 0256 0040     		.short	16384
 1409 0258 8000     		.short	128
 1410 025a FE       		.byte	-2
 1411 025b 23       		.byte	35
 1412 025c 0000     		.short	0
 1413 025e 8040     		.short	16512
 1414              		.section	.rodata
 1415 000a 0000     		.align	2
 1416              		.type	CFG_TD_ADDR0.4784, %object
 1417              		.size	CFG_TD_ADDR0.4784, 304
 1418              	CFG_TD_ADDR0.4784:
 1419 000c 80020000 		.word	CH1_ADDR_DATA0.4777
ARM GAS  D:\Users\BertoTech\TEMP\ccXSXt9C.s 			page 41


 1420 0010 78020000 		.word	CH2_ADDR_DATA0.4778
 1421 0014 70020000 		.word	CH5_ADDR_DATA0.4779
 1422 0018 68020000 		.word	CH6_ADDR_DATA0.4780
 1423 001c 60020000 		.word	DMA_TD_START_CMD.4781
 1424 0020 60020000 		.word	DMA_TD_START_CMD.4781
 1425 0024 60020000 		.word	DMA_TD_START_CMD.4781
 1426 0028 60020000 		.word	DMA_TD_START_CMD.4781
 1427 002c 00000000 		.word	DMA_ZERO_VAL.4782
 1428 0030 00000000 		.word	DMA_ZERO_VAL.4782
 1429 0034 00000000 		.word	DMA_ZERO_VAL.4782
 1430 0038 00000000 		.word	DMA_ZERO_VAL.4782
 1431 003c 00000000 		.word	DMA_ZERO_VAL.4782
 1432 0040 00000000 		.word	DMA_ZERO_VAL.4782
 1433 0044 00000000 		.word	DMA_ZERO_VAL.4782
 1434 0048 00000000 		.word	DMA_ZERO_VAL.4782
 1435 004c 00000000 		.word	DMA_ZERO_VAL.4782
 1436 0050 00000000 		.word	DMA_ZERO_VAL.4782
 1437 0054 00000000 		.word	DMA_ZERO_VAL.4782
 1438 0058 00000000 		.word	DMA_ZERO_VAL.4782
 1439 005c 08000048 		.word	1207959560
 1440 0060 10000048 		.word	1207959568
 1441 0064 A0070048 		.word	1207961504
 1442 0068 C0070048 		.word	1207961536
 1443 006c 18000048 		.word	1207959576
 1444 0070 20000048 		.word	1207959584
 1445 0074 A0000048 		.word	1207959712
 1446 0078 20010048 		.word	1207959840
 1447 007c A0010048 		.word	1207959968
 1448 0080 20020048 		.word	1207960096
 1449 0084 A0020048 		.word	1207960224
 1450 0088 20030048 		.word	1207960352
 1451 008c A0030048 		.word	1207960480
 1452 0090 20040048 		.word	1207960608
 1453 0094 A0040048 		.word	1207960736
 1454 0098 20050048 		.word	1207960864
 1455 009c A0050048 		.word	1207960992
 1456 00a0 20060048 		.word	1207961120
 1457 00a4 A0060048 		.word	1207961248
 1458 00a8 20070048 		.word	1207961376
 1459 00ac E0070048 		.word	1207961568
 1460 00b0 F0070048 		.word	1207961584
 1461 00b4 00080048 		.word	1207961600
 1462 00b8 80080048 		.word	1207961728
 1463 00bc 00090048 		.word	1207961856
 1464 00c0 80090048 		.word	1207961984
 1465 00c4 000A0048 		.word	1207962112
 1466 00c8 800A0048 		.word	1207962240
 1467 00cc 000B0048 		.word	1207962368
 1468 00d0 800B0048 		.word	1207962496
 1469 00d4 000C0048 		.word	1207962624
 1470 00d8 800C0048 		.word	1207962752
 1471 00dc 000D0048 		.word	1207962880
 1472 00e0 800D0048 		.word	1207963008
 1473 00e4 000E0048 		.word	1207963136
 1474 00e8 800E0048 		.word	1207963264
 1475 00ec 000F0048 		.word	1207963392
 1476 00f0 800F0048 		.word	1207963520
ARM GAS  D:\Users\BertoTech\TEMP\ccXSXt9C.s 			page 42


 1477 00f4 00100048 		.word	1207963648
 1478 00f8 80100048 		.word	1207963776
 1479 00fc 00110048 		.word	1207963904
 1480 0100 80110048 		.word	1207964032
 1481 0104 00120048 		.word	1207964160
 1482 0108 80120048 		.word	1207964288
 1483 010c 00130048 		.word	1207964416
 1484 0110 80130048 		.word	1207964544
 1485 0114 00140048 		.word	1207964672
 1486 0118 80140048 		.word	1207964800
 1487 011c 00150048 		.word	1207964928
 1488 0120 80150048 		.word	1207965056
 1489 0124 00160048 		.word	1207965184
 1490 0128 80160048 		.word	1207965312
 1491 012c 00170048 		.word	1207965440
 1492 0130 80170048 		.word	1207965568
 1493 0134 00180048 		.word	1207965696
 1494 0138 80180048 		.word	1207965824
 1495              		.section	.dma_init
 1496              		.align	2
 1497              		.type	DMA_TD_START_CMD.4781, %object
 1498              		.size	DMA_TD_START_CMD.4781, 5
 1499              	DMA_TD_START_CMD.4781:
 1500 0260 01       		.byte	1
 1501 0261 00       		.byte	0
 1502 0262 00       		.byte	0
 1503 0263 00       		.byte	0
 1504 0264 01       		.byte	1
 1505 0265 000000   		.align	2
 1506              		.type	CH6_ADDR_DATA0.4780, %object
 1507              		.size	CH6_ADDR_DATA0.4780, 8
 1508              	CH6_ADDR_DATA0.4780:
 1509 0268 01       		.byte	1
 1510 0269 00       		.byte	0
 1511 026a 00       		.byte	0
 1512 026b 00       		.byte	0
 1513 026c 00       		.byte	0
 1514 026d 48       		.byte	72
 1515 026e 01       		.byte	1
 1516 026f 40       		.byte	64
 1517              		.align	2
 1518              		.type	CH5_ADDR_DATA0.4779, %object
 1519              		.size	CH5_ADDR_DATA0.4779, 8
 1520              	CH5_ADDR_DATA0.4779:
 1521 0270 01       		.byte	1
 1522 0271 00       		.byte	0
 1523 0272 00       		.byte	0
 1524 0273 00       		.byte	0
 1525 0274 00       		.byte	0
 1526 0275 48       		.byte	72
 1527 0276 00       		.byte	0
 1528 0277 40       		.byte	64
 1529              		.align	2
 1530              		.type	CH2_ADDR_DATA0.4778, %object
 1531              		.size	CH2_ADDR_DATA0.4778, 8
 1532              	CH2_ADDR_DATA0.4778:
 1533 0278 01       		.byte	1
ARM GAS  D:\Users\BertoTech\TEMP\ccXSXt9C.s 			page 43


 1534 0279 00       		.byte	0
 1535 027a 00       		.byte	0
 1536 027b 00       		.byte	0
 1537 027c 00       		.byte	0
 1538 027d 20       		.byte	32
 1539 027e 01       		.byte	1
 1540 027f 40       		.byte	64
 1541              		.align	2
 1542              		.type	CH1_ADDR_DATA0.4777, %object
 1543              		.size	CH1_ADDR_DATA0.4777, 8
 1544              	CH1_ADDR_DATA0.4777:
 1545 0280 01       		.byte	1
 1546 0281 00       		.byte	0
 1547 0282 00       		.byte	0
 1548 0283 00       		.byte	0
 1549 0284 00       		.byte	0
 1550 0285 20       		.byte	32
 1551 0286 00       		.byte	0
 1552 0287 40       		.byte	64
 1553              		.text
 1554              	.Letext0:
 1555              		.file 2 "c:\\program files (x86)\\cypress\\psoc creator\\3.0\\psoc creator\\import\\gnu_cs\\arm\\4
 1556              		.file 3 "./Generated_Source/PSoC5/cytypes.h"