ARM GAS  D:\Users\BertoTech\TEMP\ccihxnoz.s 			page 1


   1              		.syntax unified
   2              		.cpu cortex-m3
   3              		.fpu softvfp
   4              		.eabi_attribute 20, 1
   5              		.eabi_attribute 21, 1
   6              		.eabi_attribute 23, 3
   7              		.eabi_attribute 24, 1
   8              		.eabi_attribute 25, 1
   9              		.eabi_attribute 26, 1
  10              		.eabi_attribute 30, 6
  11              		.eabi_attribute 34, 1
  12              		.eabi_attribute 18, 4
  13              		.thumb
  14              		.file	"Echo_Timer.c"
  15              		.text
  16              	.Ltext0:
  17              		.cfi_sections	.debug_frame
  18              		.global	Echo_Timer_initVar
  19              		.bss
  20              		.type	Echo_Timer_initVar, %object
  21              		.size	Echo_Timer_initVar, 1
  22              	Echo_Timer_initVar:
  23 0000 00       		.space	1
  24              		.section	.text.Echo_Timer_Init,"ax",%progbits
  25              		.align	2
  26              		.global	Echo_Timer_Init
  27              		.thumb
  28              		.thumb_func
  29              		.type	Echo_Timer_Init, %function
  30              	Echo_Timer_Init:
  31              	.LFB0:
  32              		.file 1 ".\\Generated_Source\\PSoC5\\Echo_Timer.c"
   1:.\Generated_Source\PSoC5/Echo_Timer.c **** /*******************************************************************************
   2:.\Generated_Source\PSoC5/Echo_Timer.c **** * File Name: Echo_Timer.c
   3:.\Generated_Source\PSoC5/Echo_Timer.c **** * Version 2.60
   4:.\Generated_Source\PSoC5/Echo_Timer.c **** *
   5:.\Generated_Source\PSoC5/Echo_Timer.c **** * Description:
   6:.\Generated_Source\PSoC5/Echo_Timer.c **** *  The Timer component consists of a 8, 16, 24 or 32-bit timer with
   7:.\Generated_Source\PSoC5/Echo_Timer.c **** *  a selectable period between 2 and 2^Width - 1.  The timer may free run
   8:.\Generated_Source\PSoC5/Echo_Timer.c **** *  or be used as a capture timer as well.  The capture can be initiated
   9:.\Generated_Source\PSoC5/Echo_Timer.c **** *  by a positive or negative edge signal as well as via software.
  10:.\Generated_Source\PSoC5/Echo_Timer.c **** *  A trigger input can be programmed to enable the timer on rising edge
  11:.\Generated_Source\PSoC5/Echo_Timer.c **** *  falling edge, either edge or continous run.
  12:.\Generated_Source\PSoC5/Echo_Timer.c **** *  Interrupts may be generated due to a terminal count condition
  13:.\Generated_Source\PSoC5/Echo_Timer.c **** *  or a capture event.
  14:.\Generated_Source\PSoC5/Echo_Timer.c **** *
  15:.\Generated_Source\PSoC5/Echo_Timer.c **** * Note:
  16:.\Generated_Source\PSoC5/Echo_Timer.c **** *
  17:.\Generated_Source\PSoC5/Echo_Timer.c **** ********************************************************************************
  18:.\Generated_Source\PSoC5/Echo_Timer.c **** * Copyright 2008-2014, Cypress Semiconductor Corporation.  All rights reserved.
  19:.\Generated_Source\PSoC5/Echo_Timer.c **** * You may use this file only in accordance with the license, terms, conditions,
  20:.\Generated_Source\PSoC5/Echo_Timer.c **** * disclaimers, and limitations in the end user license agreement accompanying
  21:.\Generated_Source\PSoC5/Echo_Timer.c **** * the software package with which this file was provided.
  22:.\Generated_Source\PSoC5/Echo_Timer.c **** ********************************************************************************/
  23:.\Generated_Source\PSoC5/Echo_Timer.c **** 
  24:.\Generated_Source\PSoC5/Echo_Timer.c **** #include "Echo_Timer.h"
  25:.\Generated_Source\PSoC5/Echo_Timer.c **** 
ARM GAS  D:\Users\BertoTech\TEMP\ccihxnoz.s 			page 2


  26:.\Generated_Source\PSoC5/Echo_Timer.c **** uint8 Echo_Timer_initVar = 0u;
  27:.\Generated_Source\PSoC5/Echo_Timer.c **** 
  28:.\Generated_Source\PSoC5/Echo_Timer.c **** 
  29:.\Generated_Source\PSoC5/Echo_Timer.c **** /*******************************************************************************
  30:.\Generated_Source\PSoC5/Echo_Timer.c **** * Function Name: Echo_Timer_Init
  31:.\Generated_Source\PSoC5/Echo_Timer.c **** ********************************************************************************
  32:.\Generated_Source\PSoC5/Echo_Timer.c **** *
  33:.\Generated_Source\PSoC5/Echo_Timer.c **** * Summary:
  34:.\Generated_Source\PSoC5/Echo_Timer.c **** *  Initialize to the schematic state
  35:.\Generated_Source\PSoC5/Echo_Timer.c **** *
  36:.\Generated_Source\PSoC5/Echo_Timer.c **** * Parameters:
  37:.\Generated_Source\PSoC5/Echo_Timer.c **** *  void
  38:.\Generated_Source\PSoC5/Echo_Timer.c **** *
  39:.\Generated_Source\PSoC5/Echo_Timer.c **** * Return:
  40:.\Generated_Source\PSoC5/Echo_Timer.c **** *  void
  41:.\Generated_Source\PSoC5/Echo_Timer.c **** *
  42:.\Generated_Source\PSoC5/Echo_Timer.c **** *******************************************************************************/
  43:.\Generated_Source\PSoC5/Echo_Timer.c **** void Echo_Timer_Init(void) 
  44:.\Generated_Source\PSoC5/Echo_Timer.c **** {
  33              		.loc 1 44 0
  34              		.cfi_startproc
  35              		@ args = 0, pretend = 0, frame = 8
  36              		@ frame_needed = 1, uses_anonymous_args = 0
  37 0000 80B5     		push	{r7, lr}
  38              	.LCFI0:
  39              		.cfi_def_cfa_offset 8
  40              		.cfi_offset 7, -8
  41              		.cfi_offset 14, -4
  42 0002 82B0     		sub	sp, sp, #8
  43              	.LCFI1:
  44              		.cfi_def_cfa_offset 16
  45 0004 00AF     		add	r7, sp, #0
  46              	.LCFI2:
  47              		.cfi_def_cfa_register 7
  45:.\Generated_Source\PSoC5/Echo_Timer.c ****     #if(!Echo_Timer_UsingFixedFunction)
  46:.\Generated_Source\PSoC5/Echo_Timer.c ****             /* Interrupt State Backup for Critical Region*/
  47:.\Generated_Source\PSoC5/Echo_Timer.c ****             uint8 Echo_Timer_interruptState;
  48:.\Generated_Source\PSoC5/Echo_Timer.c ****     #endif /* Interrupt state back up for Fixed Function only */
  49:.\Generated_Source\PSoC5/Echo_Timer.c **** 
  50:.\Generated_Source\PSoC5/Echo_Timer.c ****     #if (Echo_Timer_UsingFixedFunction)
  51:.\Generated_Source\PSoC5/Echo_Timer.c ****         /* Clear all bits but the enable bit (if it's already set) for Timer operation */
  52:.\Generated_Source\PSoC5/Echo_Timer.c ****         Echo_Timer_CONTROL &= Echo_Timer_CTRL_ENABLE;
  53:.\Generated_Source\PSoC5/Echo_Timer.c **** 
  54:.\Generated_Source\PSoC5/Echo_Timer.c ****         /* Clear the mode bits for continuous run mode */
  55:.\Generated_Source\PSoC5/Echo_Timer.c ****         #if (CY_PSOC5A)
  56:.\Generated_Source\PSoC5/Echo_Timer.c ****             Echo_Timer_CONTROL2 &= ((uint8)(~Echo_Timer_CTRL_MODE_MASK));
  57:.\Generated_Source\PSoC5/Echo_Timer.c ****         #endif /* Clear bits in CONTROL2 only in PSOC5A */
  58:.\Generated_Source\PSoC5/Echo_Timer.c **** 
  59:.\Generated_Source\PSoC5/Echo_Timer.c ****         #if (CY_PSOC3 || CY_PSOC5LP)
  60:.\Generated_Source\PSoC5/Echo_Timer.c ****             Echo_Timer_CONTROL3 &= ((uint8)(~Echo_Timer_CTRL_MODE_MASK));
  61:.\Generated_Source\PSoC5/Echo_Timer.c ****         #endif /* CONTROL3 register exists only in PSoC3 OR PSoC5LP */
  62:.\Generated_Source\PSoC5/Echo_Timer.c **** 
  63:.\Generated_Source\PSoC5/Echo_Timer.c ****         /* Check if One Shot mode is enabled i.e. RunMode !=0*/
  64:.\Generated_Source\PSoC5/Echo_Timer.c ****         #if (Echo_Timer_RunModeUsed != 0x0u)
  65:.\Generated_Source\PSoC5/Echo_Timer.c ****             /* Set 3rd bit of Control register to enable one shot mode */
  66:.\Generated_Source\PSoC5/Echo_Timer.c ****             Echo_Timer_CONTROL |= 0x04u;
  67:.\Generated_Source\PSoC5/Echo_Timer.c ****         #endif /* One Shot enabled only when RunModeUsed is not Continuous*/
ARM GAS  D:\Users\BertoTech\TEMP\ccihxnoz.s 			page 3


  68:.\Generated_Source\PSoC5/Echo_Timer.c **** 
  69:.\Generated_Source\PSoC5/Echo_Timer.c ****         #if (Echo_Timer_RunModeUsed == 2)
  70:.\Generated_Source\PSoC5/Echo_Timer.c ****             #if (CY_PSOC5A)
  71:.\Generated_Source\PSoC5/Echo_Timer.c ****                 /* Set last 2 bits of control2 register if one shot(halt on
  72:.\Generated_Source\PSoC5/Echo_Timer.c ****                 interrupt) is enabled*/
  73:.\Generated_Source\PSoC5/Echo_Timer.c ****                 Echo_Timer_CONTROL2 |= 0x03u;
  74:.\Generated_Source\PSoC5/Echo_Timer.c ****             #endif /* Set One-Shot Halt on Interrupt bit in CONTROL2 for PSoC5A */
  75:.\Generated_Source\PSoC5/Echo_Timer.c **** 
  76:.\Generated_Source\PSoC5/Echo_Timer.c ****             #if (CY_PSOC3 || CY_PSOC5LP)
  77:.\Generated_Source\PSoC5/Echo_Timer.c ****                 /* Set last 2 bits of control3 register if one shot(halt on
  78:.\Generated_Source\PSoC5/Echo_Timer.c ****                 interrupt) is enabled*/
  79:.\Generated_Source\PSoC5/Echo_Timer.c ****                 Echo_Timer_CONTROL3 |= 0x03u;
  80:.\Generated_Source\PSoC5/Echo_Timer.c ****             #endif /* Set One-Shot Halt on Interrupt bit in CONTROL3 for PSoC3 or PSoC5LP */
  81:.\Generated_Source\PSoC5/Echo_Timer.c **** 
  82:.\Generated_Source\PSoC5/Echo_Timer.c ****         #endif /* Remove section if One Shot Halt on Interrupt is not enabled */
  83:.\Generated_Source\PSoC5/Echo_Timer.c **** 
  84:.\Generated_Source\PSoC5/Echo_Timer.c ****         #if (Echo_Timer_UsingHWEnable != 0)
  85:.\Generated_Source\PSoC5/Echo_Timer.c ****             #if (CY_PSOC5A)
  86:.\Generated_Source\PSoC5/Echo_Timer.c ****                 /* Set the default Run Mode of the Timer to Continuous */
  87:.\Generated_Source\PSoC5/Echo_Timer.c ****                 Echo_Timer_CONTROL2 |= Echo_Timer_CTRL_MODE_PULSEWIDTH;
  88:.\Generated_Source\PSoC5/Echo_Timer.c ****             #endif /* Set Continuous Run Mode in CONTROL2 for PSoC5A */
  89:.\Generated_Source\PSoC5/Echo_Timer.c **** 
  90:.\Generated_Source\PSoC5/Echo_Timer.c ****             #if (CY_PSOC3 || CY_PSOC5LP)
  91:.\Generated_Source\PSoC5/Echo_Timer.c ****                 /* Clear and Set ROD and COD bits of CFG2 register */
  92:.\Generated_Source\PSoC5/Echo_Timer.c ****                 Echo_Timer_CONTROL3 &= ((uint8)(~Echo_Timer_CTRL_RCOD_MASK));
  93:.\Generated_Source\PSoC5/Echo_Timer.c ****                 Echo_Timer_CONTROL3 |= Echo_Timer_CTRL_RCOD;
  94:.\Generated_Source\PSoC5/Echo_Timer.c **** 
  95:.\Generated_Source\PSoC5/Echo_Timer.c ****                 /* Clear and Enable the HW enable bit in CFG2 register */
  96:.\Generated_Source\PSoC5/Echo_Timer.c ****                 Echo_Timer_CONTROL3 &= ((uint8)(~Echo_Timer_CTRL_ENBL_MASK));
  97:.\Generated_Source\PSoC5/Echo_Timer.c ****                 Echo_Timer_CONTROL3 |= Echo_Timer_CTRL_ENBL;
  98:.\Generated_Source\PSoC5/Echo_Timer.c **** 
  99:.\Generated_Source\PSoC5/Echo_Timer.c ****                 /* Set the default Run Mode of the Timer to Continuous */
 100:.\Generated_Source\PSoC5/Echo_Timer.c ****                 Echo_Timer_CONTROL3 |= Echo_Timer_CTRL_MODE_CONTINUOUS;
 101:.\Generated_Source\PSoC5/Echo_Timer.c ****             #endif /* Set Continuous Run Mode in CONTROL3 for PSoC3ES3 or PSoC5A */
 102:.\Generated_Source\PSoC5/Echo_Timer.c **** 
 103:.\Generated_Source\PSoC5/Echo_Timer.c ****         #endif /* Configure Run Mode with hardware enable */
 104:.\Generated_Source\PSoC5/Echo_Timer.c **** 
 105:.\Generated_Source\PSoC5/Echo_Timer.c ****         /* Clear and Set SYNCTC and SYNCCMP bits of RT1 register */
 106:.\Generated_Source\PSoC5/Echo_Timer.c ****         Echo_Timer_RT1 &= ((uint8)(~Echo_Timer_RT1_MASK));
 107:.\Generated_Source\PSoC5/Echo_Timer.c ****         Echo_Timer_RT1 |= Echo_Timer_SYNC;
 108:.\Generated_Source\PSoC5/Echo_Timer.c **** 
 109:.\Generated_Source\PSoC5/Echo_Timer.c ****         /*Enable DSI Sync all all inputs of the Timer*/
 110:.\Generated_Source\PSoC5/Echo_Timer.c ****         Echo_Timer_RT1 &= ((uint8)(~Echo_Timer_SYNCDSI_MASK));
 111:.\Generated_Source\PSoC5/Echo_Timer.c ****         Echo_Timer_RT1 |= Echo_Timer_SYNCDSI_EN;
 112:.\Generated_Source\PSoC5/Echo_Timer.c **** 
 113:.\Generated_Source\PSoC5/Echo_Timer.c ****         /* Set the IRQ to use the status register interrupts */
 114:.\Generated_Source\PSoC5/Echo_Timer.c ****         Echo_Timer_CONTROL2 |= Echo_Timer_CTRL2_IRQ_SEL;
 115:.\Generated_Source\PSoC5/Echo_Timer.c ****     #endif /* Configuring registers of fixed function implementation */
 116:.\Generated_Source\PSoC5/Echo_Timer.c **** 
 117:.\Generated_Source\PSoC5/Echo_Timer.c ****     /* Set Initial values from Configuration */
 118:.\Generated_Source\PSoC5/Echo_Timer.c ****     Echo_Timer_WritePeriod(Echo_Timer_INIT_PERIOD);
  48              		.loc 1 118 0
  49 0006 4FF6FF70 		movw	r0, #65535
  50 000a FFF7FEFF 		bl	Echo_Timer_WritePeriod
 119:.\Generated_Source\PSoC5/Echo_Timer.c ****     Echo_Timer_WriteCounter(Echo_Timer_INIT_PERIOD);
  51              		.loc 1 119 0
  52 000e 4FF6FF70 		movw	r0, #65535
ARM GAS  D:\Users\BertoTech\TEMP\ccihxnoz.s 			page 4


  53 0012 FFF7FEFF 		bl	Echo_Timer_WriteCounter
 120:.\Generated_Source\PSoC5/Echo_Timer.c **** 
 121:.\Generated_Source\PSoC5/Echo_Timer.c ****     #if (Echo_Timer_UsingHWCaptureCounter)/* Capture counter is enabled */
 122:.\Generated_Source\PSoC5/Echo_Timer.c ****         Echo_Timer_CAPTURE_COUNT_CTRL |= Echo_Timer_CNTR_ENABLE;
 123:.\Generated_Source\PSoC5/Echo_Timer.c ****         Echo_Timer_SetCaptureCount(Echo_Timer_INIT_CAPTURE_COUNT);
 124:.\Generated_Source\PSoC5/Echo_Timer.c ****     #endif /* Configure capture counter value */
 125:.\Generated_Source\PSoC5/Echo_Timer.c **** 
 126:.\Generated_Source\PSoC5/Echo_Timer.c ****     #if (!Echo_Timer_UsingFixedFunction)
 127:.\Generated_Source\PSoC5/Echo_Timer.c ****         #if (Echo_Timer_SoftwareCaptureMode)
 128:.\Generated_Source\PSoC5/Echo_Timer.c ****             Echo_Timer_SetCaptureMode(Echo_Timer_INIT_CAPTURE_MODE);
 129:.\Generated_Source\PSoC5/Echo_Timer.c ****         #endif /* Set Capture Mode for UDB implementation if capture mode is software controlled */
 130:.\Generated_Source\PSoC5/Echo_Timer.c **** 
 131:.\Generated_Source\PSoC5/Echo_Timer.c ****         #if (Echo_Timer_SoftwareTriggerMode)
 132:.\Generated_Source\PSoC5/Echo_Timer.c ****             #if (!Echo_Timer_UDB_CONTROL_REG_REMOVED)
 133:.\Generated_Source\PSoC5/Echo_Timer.c ****                 if (0u == (Echo_Timer_CONTROL & Echo_Timer__B_TIMER__TM_SOFTWARE))
 134:.\Generated_Source\PSoC5/Echo_Timer.c ****                 {
 135:.\Generated_Source\PSoC5/Echo_Timer.c ****                     Echo_Timer_SetTriggerMode(Echo_Timer_INIT_TRIGGER_MODE);
 136:.\Generated_Source\PSoC5/Echo_Timer.c ****                 }
 137:.\Generated_Source\PSoC5/Echo_Timer.c ****             #endif /* (!Echo_Timer_UDB_CONTROL_REG_REMOVED) */
 138:.\Generated_Source\PSoC5/Echo_Timer.c ****         #endif /* Set trigger mode for UDB Implementation if trigger mode is software controlled */
 139:.\Generated_Source\PSoC5/Echo_Timer.c **** 
 140:.\Generated_Source\PSoC5/Echo_Timer.c ****         /* CyEnterCriticalRegion and CyExitCriticalRegion are used to mark following region critica
 141:.\Generated_Source\PSoC5/Echo_Timer.c ****         /* Enter Critical Region*/
 142:.\Generated_Source\PSoC5/Echo_Timer.c ****         Echo_Timer_interruptState = CyEnterCriticalSection();
  54              		.loc 1 142 0
  55 0016 FFF7FEFF 		bl	CyEnterCriticalSection
  56 001a 0346     		mov	r3, r0
  57 001c FB71     		strb	r3, [r7, #7]
 143:.\Generated_Source\PSoC5/Echo_Timer.c **** 
 144:.\Generated_Source\PSoC5/Echo_Timer.c ****         /* Use the interrupt output of the status register for IRQ output */
 145:.\Generated_Source\PSoC5/Echo_Timer.c ****         Echo_Timer_STATUS_AUX_CTRL |= Echo_Timer_STATUS_ACTL_INT_EN_MASK;
  58              		.loc 1 145 0
  59 001e 46F29953 		movw	r3, #26009
  60 0022 C4F20003 		movt	r3, 16384
  61 0026 46F29952 		movw	r2, #26009
  62 002a C4F20002 		movt	r2, 16384
  63 002e 1278     		ldrb	r2, [r2, #0]
  64 0030 D2B2     		uxtb	r2, r2
  65 0032 42F01002 		orr	r2, r2, #16
  66 0036 D2B2     		uxtb	r2, r2
  67 0038 1A70     		strb	r2, [r3, #0]
 146:.\Generated_Source\PSoC5/Echo_Timer.c **** 
 147:.\Generated_Source\PSoC5/Echo_Timer.c ****         /* Exit Critical Region*/
 148:.\Generated_Source\PSoC5/Echo_Timer.c ****         CyExitCriticalSection(Echo_Timer_interruptState);
  68              		.loc 1 148 0
  69 003a FB79     		ldrb	r3, [r7, #7]	@ zero_extendqisi2
  70 003c 1846     		mov	r0, r3
  71 003e FFF7FEFF 		bl	CyExitCriticalSection
 149:.\Generated_Source\PSoC5/Echo_Timer.c **** 
 150:.\Generated_Source\PSoC5/Echo_Timer.c ****         #if (Echo_Timer_EnableTriggerMode)
 151:.\Generated_Source\PSoC5/Echo_Timer.c ****             Echo_Timer_EnableTrigger();
 152:.\Generated_Source\PSoC5/Echo_Timer.c ****         #endif /* Set Trigger enable bit for UDB implementation in the control register*/
 153:.\Generated_Source\PSoC5/Echo_Timer.c **** 		
 154:.\Generated_Source\PSoC5/Echo_Timer.c **** 		
 155:.\Generated_Source\PSoC5/Echo_Timer.c ****         #if (Echo_Timer_InterruptOnCaptureCount && !Echo_Timer_UDB_CONTROL_REG_REMOVED)
 156:.\Generated_Source\PSoC5/Echo_Timer.c ****             Echo_Timer_SetInterruptCount(Echo_Timer_INIT_INT_CAPTURE_COUNT);
  72              		.loc 1 156 0
ARM GAS  D:\Users\BertoTech\TEMP\ccihxnoz.s 			page 5


  73 0042 4FF00000 		mov	r0, #0
  74 0046 FFF7FEFF 		bl	Echo_Timer_SetInterruptCount
 157:.\Generated_Source\PSoC5/Echo_Timer.c ****         #endif /* Set interrupt count in UDB implementation if interrupt count feature is checked.*
 158:.\Generated_Source\PSoC5/Echo_Timer.c **** 
 159:.\Generated_Source\PSoC5/Echo_Timer.c ****         Echo_Timer_ClearFIFO();
  75              		.loc 1 159 0
  76 004a FFF7FEFF 		bl	Echo_Timer_ClearFIFO
 160:.\Generated_Source\PSoC5/Echo_Timer.c ****     #endif /* Configure additional features of UDB implementation */
 161:.\Generated_Source\PSoC5/Echo_Timer.c **** 
 162:.\Generated_Source\PSoC5/Echo_Timer.c ****     Echo_Timer_SetInterruptMode(Echo_Timer_INIT_INTERRUPT_MODE);
  77              		.loc 1 162 0
  78 004e 4FF00200 		mov	r0, #2
  79 0052 FFF7FEFF 		bl	Echo_Timer_SetInterruptMode
 163:.\Generated_Source\PSoC5/Echo_Timer.c **** }
  80              		.loc 1 163 0
  81 0056 07F10807 		add	r7, r7, #8
  82 005a BD46     		mov	sp, r7
  83 005c 80BD     		pop	{r7, pc}
  84              		.cfi_endproc
  85              	.LFE0:
  86              		.size	Echo_Timer_Init, .-Echo_Timer_Init
  87 005e 00BF     		.section	.text.Echo_Timer_Enable,"ax",%progbits
  88              		.align	2
  89              		.global	Echo_Timer_Enable
  90              		.thumb
  91              		.thumb_func
  92              		.type	Echo_Timer_Enable, %function
  93              	Echo_Timer_Enable:
  94              	.LFB1:
 164:.\Generated_Source\PSoC5/Echo_Timer.c **** 
 165:.\Generated_Source\PSoC5/Echo_Timer.c **** 
 166:.\Generated_Source\PSoC5/Echo_Timer.c **** /*******************************************************************************
 167:.\Generated_Source\PSoC5/Echo_Timer.c **** * Function Name: Echo_Timer_Enable
 168:.\Generated_Source\PSoC5/Echo_Timer.c **** ********************************************************************************
 169:.\Generated_Source\PSoC5/Echo_Timer.c **** *
 170:.\Generated_Source\PSoC5/Echo_Timer.c **** * Summary:
 171:.\Generated_Source\PSoC5/Echo_Timer.c **** *  Enable the Timer
 172:.\Generated_Source\PSoC5/Echo_Timer.c **** *
 173:.\Generated_Source\PSoC5/Echo_Timer.c **** * Parameters:
 174:.\Generated_Source\PSoC5/Echo_Timer.c **** *  void
 175:.\Generated_Source\PSoC5/Echo_Timer.c **** *
 176:.\Generated_Source\PSoC5/Echo_Timer.c **** * Return:
 177:.\Generated_Source\PSoC5/Echo_Timer.c **** *  void
 178:.\Generated_Source\PSoC5/Echo_Timer.c **** *
 179:.\Generated_Source\PSoC5/Echo_Timer.c **** *******************************************************************************/
 180:.\Generated_Source\PSoC5/Echo_Timer.c **** void Echo_Timer_Enable(void) 
 181:.\Generated_Source\PSoC5/Echo_Timer.c **** {
  95              		.loc 1 181 0
  96              		.cfi_startproc
  97              		@ args = 0, pretend = 0, frame = 0
  98              		@ frame_needed = 1, uses_anonymous_args = 0
  99              		@ link register save eliminated.
 100 0000 80B4     		push	{r7}
 101              	.LCFI3:
 102              		.cfi_def_cfa_offset 4
 103              		.cfi_offset 7, -4
 104 0002 00AF     		add	r7, sp, #0
ARM GAS  D:\Users\BertoTech\TEMP\ccihxnoz.s 			page 6


 105              	.LCFI4:
 106              		.cfi_def_cfa_register 7
 182:.\Generated_Source\PSoC5/Echo_Timer.c ****     /* Globally Enable the Fixed Function Block chosen */
 183:.\Generated_Source\PSoC5/Echo_Timer.c ****     #if (Echo_Timer_UsingFixedFunction)
 184:.\Generated_Source\PSoC5/Echo_Timer.c ****         Echo_Timer_GLOBAL_ENABLE |= Echo_Timer_BLOCK_EN_MASK;
 185:.\Generated_Source\PSoC5/Echo_Timer.c ****         Echo_Timer_GLOBAL_STBY_ENABLE |= Echo_Timer_BLOCK_STBY_EN_MASK;
 186:.\Generated_Source\PSoC5/Echo_Timer.c ****     #endif /* Set Enable bit for enabling Fixed function timer*/
 187:.\Generated_Source\PSoC5/Echo_Timer.c **** 
 188:.\Generated_Source\PSoC5/Echo_Timer.c ****     /* Remove assignment if control register is removed */
 189:.\Generated_Source\PSoC5/Echo_Timer.c ****     #if (!Echo_Timer_UDB_CONTROL_REG_REMOVED || Echo_Timer_UsingFixedFunction)
 190:.\Generated_Source\PSoC5/Echo_Timer.c ****         Echo_Timer_CONTROL |= Echo_Timer_CTRL_ENABLE;
 107              		.loc 1 190 0
 108 0004 46F27953 		movw	r3, #25977
 109 0008 C4F20003 		movt	r3, 16384
 110 000c 46F27952 		movw	r2, #25977
 111 0010 C4F20002 		movt	r2, 16384
 112 0014 1278     		ldrb	r2, [r2, #0]
 113 0016 D2B2     		uxtb	r2, r2
 114 0018 62F07F02 		orn	r2, r2, #127
 115 001c D2B2     		uxtb	r2, r2
 116 001e 1A70     		strb	r2, [r3, #0]
 191:.\Generated_Source\PSoC5/Echo_Timer.c ****     #endif /* Remove assignment if control register is removed */
 192:.\Generated_Source\PSoC5/Echo_Timer.c **** }
 117              		.loc 1 192 0
 118 0020 BD46     		mov	sp, r7
 119 0022 80BC     		pop	{r7}
 120 0024 7047     		bx	lr
 121              		.cfi_endproc
 122              	.LFE1:
 123              		.size	Echo_Timer_Enable, .-Echo_Timer_Enable
 124 0026 00BF     		.section	.text.Echo_Timer_Start,"ax",%progbits
 125              		.align	2
 126              		.global	Echo_Timer_Start
 127              		.thumb
 128              		.thumb_func
 129              		.type	Echo_Timer_Start, %function
 130              	Echo_Timer_Start:
 131              	.LFB2:
 193:.\Generated_Source\PSoC5/Echo_Timer.c **** 
 194:.\Generated_Source\PSoC5/Echo_Timer.c **** 
 195:.\Generated_Source\PSoC5/Echo_Timer.c **** /*******************************************************************************
 196:.\Generated_Source\PSoC5/Echo_Timer.c **** * Function Name: Echo_Timer_Start
 197:.\Generated_Source\PSoC5/Echo_Timer.c **** ********************************************************************************
 198:.\Generated_Source\PSoC5/Echo_Timer.c **** *
 199:.\Generated_Source\PSoC5/Echo_Timer.c **** * Summary:
 200:.\Generated_Source\PSoC5/Echo_Timer.c **** *  The start function initializes the timer with the default values, the
 201:.\Generated_Source\PSoC5/Echo_Timer.c **** *  enables the timerto begin counting.  It does not enable interrupts,
 202:.\Generated_Source\PSoC5/Echo_Timer.c **** *  the EnableInt command should be called if interrupt generation is required.
 203:.\Generated_Source\PSoC5/Echo_Timer.c **** *
 204:.\Generated_Source\PSoC5/Echo_Timer.c **** * Parameters:
 205:.\Generated_Source\PSoC5/Echo_Timer.c **** *  void
 206:.\Generated_Source\PSoC5/Echo_Timer.c **** *
 207:.\Generated_Source\PSoC5/Echo_Timer.c **** * Return:
 208:.\Generated_Source\PSoC5/Echo_Timer.c **** *  void
 209:.\Generated_Source\PSoC5/Echo_Timer.c **** *
 210:.\Generated_Source\PSoC5/Echo_Timer.c **** * Global variables:
 211:.\Generated_Source\PSoC5/Echo_Timer.c **** *  Echo_Timer_initVar: Is modified when this function is called for the
ARM GAS  D:\Users\BertoTech\TEMP\ccihxnoz.s 			page 7


 212:.\Generated_Source\PSoC5/Echo_Timer.c **** *   first time. Is used to ensure that initialization happens only once.
 213:.\Generated_Source\PSoC5/Echo_Timer.c **** *
 214:.\Generated_Source\PSoC5/Echo_Timer.c **** *******************************************************************************/
 215:.\Generated_Source\PSoC5/Echo_Timer.c **** void Echo_Timer_Start(void) 
 216:.\Generated_Source\PSoC5/Echo_Timer.c **** {
 132              		.loc 1 216 0
 133              		.cfi_startproc
 134              		@ args = 0, pretend = 0, frame = 0
 135              		@ frame_needed = 1, uses_anonymous_args = 0
 136 0000 80B5     		push	{r7, lr}
 137              	.LCFI5:
 138              		.cfi_def_cfa_offset 8
 139              		.cfi_offset 7, -8
 140              		.cfi_offset 14, -4
 141 0002 00AF     		add	r7, sp, #0
 142              	.LCFI6:
 143              		.cfi_def_cfa_register 7
 217:.\Generated_Source\PSoC5/Echo_Timer.c ****     if(Echo_Timer_initVar == 0u)
 144              		.loc 1 217 0
 145 0004 40F20003 		movw	r3, #:lower16:Echo_Timer_initVar
 146 0008 C0F20003 		movt	r3, #:upper16:Echo_Timer_initVar
 147 000c 1B78     		ldrb	r3, [r3, #0]	@ zero_extendqisi2
 148 000e 002B     		cmp	r3, #0
 149 0010 08D1     		bne	.L4
 218:.\Generated_Source\PSoC5/Echo_Timer.c ****     {
 219:.\Generated_Source\PSoC5/Echo_Timer.c ****         Echo_Timer_Init();
 150              		.loc 1 219 0
 151 0012 FFF7FEFF 		bl	Echo_Timer_Init
 220:.\Generated_Source\PSoC5/Echo_Timer.c **** 
 221:.\Generated_Source\PSoC5/Echo_Timer.c ****         Echo_Timer_initVar = 1u;   /* Clear this bit for Initialization */
 152              		.loc 1 221 0
 153 0016 40F20003 		movw	r3, #:lower16:Echo_Timer_initVar
 154 001a C0F20003 		movt	r3, #:upper16:Echo_Timer_initVar
 155 001e 4FF00102 		mov	r2, #1
 156 0022 1A70     		strb	r2, [r3, #0]
 157              	.L4:
 222:.\Generated_Source\PSoC5/Echo_Timer.c ****     }
 223:.\Generated_Source\PSoC5/Echo_Timer.c **** 
 224:.\Generated_Source\PSoC5/Echo_Timer.c ****     /* Enable the Timer */
 225:.\Generated_Source\PSoC5/Echo_Timer.c ****     Echo_Timer_Enable();
 158              		.loc 1 225 0
 159 0024 FFF7FEFF 		bl	Echo_Timer_Enable
 226:.\Generated_Source\PSoC5/Echo_Timer.c **** }
 160              		.loc 1 226 0
 161 0028 80BD     		pop	{r7, pc}
 162              		.cfi_endproc
 163              	.LFE2:
 164              		.size	Echo_Timer_Start, .-Echo_Timer_Start
 165 002a 00BF     		.section	.text.Echo_Timer_Stop,"ax",%progbits
 166              		.align	2
 167              		.global	Echo_Timer_Stop
 168              		.thumb
 169              		.thumb_func
 170              		.type	Echo_Timer_Stop, %function
 171              	Echo_Timer_Stop:
 172              	.LFB3:
 227:.\Generated_Source\PSoC5/Echo_Timer.c **** 
ARM GAS  D:\Users\BertoTech\TEMP\ccihxnoz.s 			page 8


 228:.\Generated_Source\PSoC5/Echo_Timer.c **** 
 229:.\Generated_Source\PSoC5/Echo_Timer.c **** /*******************************************************************************
 230:.\Generated_Source\PSoC5/Echo_Timer.c **** * Function Name: Echo_Timer_Stop
 231:.\Generated_Source\PSoC5/Echo_Timer.c **** ********************************************************************************
 232:.\Generated_Source\PSoC5/Echo_Timer.c **** *
 233:.\Generated_Source\PSoC5/Echo_Timer.c **** * Summary:
 234:.\Generated_Source\PSoC5/Echo_Timer.c **** *  The stop function halts the timer, but does not change any modes or disable
 235:.\Generated_Source\PSoC5/Echo_Timer.c **** *  interrupts.
 236:.\Generated_Source\PSoC5/Echo_Timer.c **** *
 237:.\Generated_Source\PSoC5/Echo_Timer.c **** * Parameters:
 238:.\Generated_Source\PSoC5/Echo_Timer.c **** *  void
 239:.\Generated_Source\PSoC5/Echo_Timer.c **** *
 240:.\Generated_Source\PSoC5/Echo_Timer.c **** * Return:
 241:.\Generated_Source\PSoC5/Echo_Timer.c **** *  void
 242:.\Generated_Source\PSoC5/Echo_Timer.c **** *
 243:.\Generated_Source\PSoC5/Echo_Timer.c **** * Side Effects: If the Enable mode is set to Hardware only then this function
 244:.\Generated_Source\PSoC5/Echo_Timer.c **** *               has no effect on the operation of the timer.
 245:.\Generated_Source\PSoC5/Echo_Timer.c **** *
 246:.\Generated_Source\PSoC5/Echo_Timer.c **** *******************************************************************************/
 247:.\Generated_Source\PSoC5/Echo_Timer.c **** void Echo_Timer_Stop(void) 
 248:.\Generated_Source\PSoC5/Echo_Timer.c **** {
 173              		.loc 1 248 0
 174              		.cfi_startproc
 175              		@ args = 0, pretend = 0, frame = 0
 176              		@ frame_needed = 1, uses_anonymous_args = 0
 177              		@ link register save eliminated.
 178 0000 80B4     		push	{r7}
 179              	.LCFI7:
 180              		.cfi_def_cfa_offset 4
 181              		.cfi_offset 7, -4
 182 0002 00AF     		add	r7, sp, #0
 183              	.LCFI8:
 184              		.cfi_def_cfa_register 7
 249:.\Generated_Source\PSoC5/Echo_Timer.c ****     /* Disable Timer */
 250:.\Generated_Source\PSoC5/Echo_Timer.c ****     #if(!Echo_Timer_UDB_CONTROL_REG_REMOVED || Echo_Timer_UsingFixedFunction)
 251:.\Generated_Source\PSoC5/Echo_Timer.c ****         Echo_Timer_CONTROL &= ((uint8)(~Echo_Timer_CTRL_ENABLE));
 185              		.loc 1 251 0
 186 0004 46F27953 		movw	r3, #25977
 187 0008 C4F20003 		movt	r3, 16384
 188 000c 46F27952 		movw	r2, #25977
 189 0010 C4F20002 		movt	r2, 16384
 190 0014 1278     		ldrb	r2, [r2, #0]
 191 0016 D2B2     		uxtb	r2, r2
 192 0018 02F07F02 		and	r2, r2, #127
 193 001c D2B2     		uxtb	r2, r2
 194 001e 1A70     		strb	r2, [r3, #0]
 252:.\Generated_Source\PSoC5/Echo_Timer.c ****     #endif /* Remove assignment if control register is removed */
 253:.\Generated_Source\PSoC5/Echo_Timer.c **** 
 254:.\Generated_Source\PSoC5/Echo_Timer.c ****     /* Globally disable the Fixed Function Block chosen */
 255:.\Generated_Source\PSoC5/Echo_Timer.c ****     #if (Echo_Timer_UsingFixedFunction)
 256:.\Generated_Source\PSoC5/Echo_Timer.c ****         Echo_Timer_GLOBAL_ENABLE &= ((uint8)(~Echo_Timer_BLOCK_EN_MASK));
 257:.\Generated_Source\PSoC5/Echo_Timer.c ****         Echo_Timer_GLOBAL_STBY_ENABLE &= ((uint8)(~Echo_Timer_BLOCK_STBY_EN_MASK));
 258:.\Generated_Source\PSoC5/Echo_Timer.c ****     #endif /* Disable global enable for the Timer Fixed function block to stop the Timer*/
 259:.\Generated_Source\PSoC5/Echo_Timer.c **** }
 195              		.loc 1 259 0
 196 0020 BD46     		mov	sp, r7
 197 0022 80BC     		pop	{r7}
ARM GAS  D:\Users\BertoTech\TEMP\ccihxnoz.s 			page 9


 198 0024 7047     		bx	lr
 199              		.cfi_endproc
 200              	.LFE3:
 201              		.size	Echo_Timer_Stop, .-Echo_Timer_Stop
 202 0026 00BF     		.section	.text.Echo_Timer_SetInterruptMode,"ax",%progbits
 203              		.align	2
 204              		.global	Echo_Timer_SetInterruptMode
 205              		.thumb
 206              		.thumb_func
 207              		.type	Echo_Timer_SetInterruptMode, %function
 208              	Echo_Timer_SetInterruptMode:
 209              	.LFB4:
 260:.\Generated_Source\PSoC5/Echo_Timer.c **** 
 261:.\Generated_Source\PSoC5/Echo_Timer.c **** 
 262:.\Generated_Source\PSoC5/Echo_Timer.c **** /*******************************************************************************
 263:.\Generated_Source\PSoC5/Echo_Timer.c **** * Function Name: Echo_Timer_SetInterruptMode
 264:.\Generated_Source\PSoC5/Echo_Timer.c **** ********************************************************************************
 265:.\Generated_Source\PSoC5/Echo_Timer.c **** *
 266:.\Generated_Source\PSoC5/Echo_Timer.c **** * Summary:
 267:.\Generated_Source\PSoC5/Echo_Timer.c **** *  This function selects which of the interrupt inputs may cause an interrupt.
 268:.\Generated_Source\PSoC5/Echo_Timer.c **** *  The twosources are caputure and terminal.  One, both or neither may
 269:.\Generated_Source\PSoC5/Echo_Timer.c **** *  be selected.
 270:.\Generated_Source\PSoC5/Echo_Timer.c **** *
 271:.\Generated_Source\PSoC5/Echo_Timer.c **** * Parameters:
 272:.\Generated_Source\PSoC5/Echo_Timer.c **** *  interruptMode:   This parameter is used to enable interrups on either/or
 273:.\Generated_Source\PSoC5/Echo_Timer.c **** *                   terminal count or capture.
 274:.\Generated_Source\PSoC5/Echo_Timer.c **** *
 275:.\Generated_Source\PSoC5/Echo_Timer.c **** * Return:
 276:.\Generated_Source\PSoC5/Echo_Timer.c **** *  void
 277:.\Generated_Source\PSoC5/Echo_Timer.c **** *
 278:.\Generated_Source\PSoC5/Echo_Timer.c **** *******************************************************************************/
 279:.\Generated_Source\PSoC5/Echo_Timer.c **** void Echo_Timer_SetInterruptMode(uint8 interruptMode) 
 280:.\Generated_Source\PSoC5/Echo_Timer.c **** {
 210              		.loc 1 280 0
 211              		.cfi_startproc
 212              		@ args = 0, pretend = 0, frame = 8
 213              		@ frame_needed = 1, uses_anonymous_args = 0
 214              		@ link register save eliminated.
 215 0000 80B4     		push	{r7}
 216              	.LCFI9:
 217              		.cfi_def_cfa_offset 4
 218              		.cfi_offset 7, -4
 219 0002 83B0     		sub	sp, sp, #12
 220              	.LCFI10:
 221              		.cfi_def_cfa_offset 16
 222 0004 00AF     		add	r7, sp, #0
 223              	.LCFI11:
 224              		.cfi_def_cfa_register 7
 225 0006 0346     		mov	r3, r0
 226 0008 FB71     		strb	r3, [r7, #7]
 281:.\Generated_Source\PSoC5/Echo_Timer.c ****     Echo_Timer_STATUS_MASK = interruptMode;
 227              		.loc 1 281 0
 228 000a 46F28953 		movw	r3, #25993
 229 000e C4F20003 		movt	r3, 16384
 230 0012 FA79     		ldrb	r2, [r7, #7]
 231 0014 1A70     		strb	r2, [r3, #0]
 282:.\Generated_Source\PSoC5/Echo_Timer.c **** }
ARM GAS  D:\Users\BertoTech\TEMP\ccihxnoz.s 			page 10


 232              		.loc 1 282 0
 233 0016 07F10C07 		add	r7, r7, #12
 234 001a BD46     		mov	sp, r7
 235 001c 80BC     		pop	{r7}
 236 001e 7047     		bx	lr
 237              		.cfi_endproc
 238              	.LFE4:
 239              		.size	Echo_Timer_SetInterruptMode, .-Echo_Timer_SetInterruptMode
 240              		.section	.text.Echo_Timer_SoftwareCapture,"ax",%progbits
 241              		.align	2
 242              		.global	Echo_Timer_SoftwareCapture
 243              		.thumb
 244              		.thumb_func
 245              		.type	Echo_Timer_SoftwareCapture, %function
 246              	Echo_Timer_SoftwareCapture:
 247              	.LFB5:
 283:.\Generated_Source\PSoC5/Echo_Timer.c **** 
 284:.\Generated_Source\PSoC5/Echo_Timer.c **** 
 285:.\Generated_Source\PSoC5/Echo_Timer.c **** /*******************************************************************************
 286:.\Generated_Source\PSoC5/Echo_Timer.c **** * Function Name: Echo_Timer_SoftwareCapture
 287:.\Generated_Source\PSoC5/Echo_Timer.c **** ********************************************************************************
 288:.\Generated_Source\PSoC5/Echo_Timer.c **** *
 289:.\Generated_Source\PSoC5/Echo_Timer.c **** * Summary:
 290:.\Generated_Source\PSoC5/Echo_Timer.c **** *  This function forces a capture independent of the capture signal.
 291:.\Generated_Source\PSoC5/Echo_Timer.c **** *
 292:.\Generated_Source\PSoC5/Echo_Timer.c **** * Parameters:
 293:.\Generated_Source\PSoC5/Echo_Timer.c **** *  void
 294:.\Generated_Source\PSoC5/Echo_Timer.c **** *
 295:.\Generated_Source\PSoC5/Echo_Timer.c **** * Return:
 296:.\Generated_Source\PSoC5/Echo_Timer.c **** *  void
 297:.\Generated_Source\PSoC5/Echo_Timer.c **** *
 298:.\Generated_Source\PSoC5/Echo_Timer.c **** * Side Effects:
 299:.\Generated_Source\PSoC5/Echo_Timer.c **** *  An existing hardware capture could be overwritten.
 300:.\Generated_Source\PSoC5/Echo_Timer.c **** *
 301:.\Generated_Source\PSoC5/Echo_Timer.c **** *******************************************************************************/
 302:.\Generated_Source\PSoC5/Echo_Timer.c **** void Echo_Timer_SoftwareCapture(void) 
 303:.\Generated_Source\PSoC5/Echo_Timer.c **** {
 248              		.loc 1 303 0
 249              		.cfi_startproc
 250              		@ args = 0, pretend = 0, frame = 0
 251              		@ frame_needed = 1, uses_anonymous_args = 0
 252              		@ link register save eliminated.
 253 0000 80B4     		push	{r7}
 254              	.LCFI12:
 255              		.cfi_def_cfa_offset 4
 256              		.cfi_offset 7, -4
 257 0002 00AF     		add	r7, sp, #0
 258              	.LCFI13:
 259              		.cfi_def_cfa_register 7
 304:.\Generated_Source\PSoC5/Echo_Timer.c ****     /* Generate a software capture by reading the counter register */
 305:.\Generated_Source\PSoC5/Echo_Timer.c ****     (void)Echo_Timer_COUNTER_LSB;
 260              		.loc 1 305 0
 261 0004 46F61023 		movw	r3, #27152
 262 0008 C4F20003 		movt	r3, 16384
 263 000c 1B88     		ldrh	r3, [r3, #0]	@ movhi
 306:.\Generated_Source\PSoC5/Echo_Timer.c ****     /* Capture Data is now in the FIFO */
 307:.\Generated_Source\PSoC5/Echo_Timer.c **** }
ARM GAS  D:\Users\BertoTech\TEMP\ccihxnoz.s 			page 11


 264              		.loc 1 307 0
 265 000e BD46     		mov	sp, r7
 266 0010 80BC     		pop	{r7}
 267 0012 7047     		bx	lr
 268              		.cfi_endproc
 269              	.LFE5:
 270              		.size	Echo_Timer_SoftwareCapture, .-Echo_Timer_SoftwareCapture
 271              		.section	.text.Echo_Timer_ReadStatusRegister,"ax",%progbits
 272              		.align	2
 273              		.global	Echo_Timer_ReadStatusRegister
 274              		.thumb
 275              		.thumb_func
 276              		.type	Echo_Timer_ReadStatusRegister, %function
 277              	Echo_Timer_ReadStatusRegister:
 278              	.LFB6:
 308:.\Generated_Source\PSoC5/Echo_Timer.c **** 
 309:.\Generated_Source\PSoC5/Echo_Timer.c **** 
 310:.\Generated_Source\PSoC5/Echo_Timer.c **** /*******************************************************************************
 311:.\Generated_Source\PSoC5/Echo_Timer.c **** * Function Name: Echo_Timer_ReadStatusRegister
 312:.\Generated_Source\PSoC5/Echo_Timer.c **** ********************************************************************************
 313:.\Generated_Source\PSoC5/Echo_Timer.c **** *
 314:.\Generated_Source\PSoC5/Echo_Timer.c **** * Summary:
 315:.\Generated_Source\PSoC5/Echo_Timer.c **** *  Reads the status register and returns it's state. This function should use
 316:.\Generated_Source\PSoC5/Echo_Timer.c **** *  defined types for the bit-field information as the bits in this register may
 317:.\Generated_Source\PSoC5/Echo_Timer.c **** *  be permuteable.
 318:.\Generated_Source\PSoC5/Echo_Timer.c **** *
 319:.\Generated_Source\PSoC5/Echo_Timer.c **** * Parameters:
 320:.\Generated_Source\PSoC5/Echo_Timer.c **** *  void
 321:.\Generated_Source\PSoC5/Echo_Timer.c **** *
 322:.\Generated_Source\PSoC5/Echo_Timer.c **** * Return:
 323:.\Generated_Source\PSoC5/Echo_Timer.c **** *  The contents of the status register
 324:.\Generated_Source\PSoC5/Echo_Timer.c **** *
 325:.\Generated_Source\PSoC5/Echo_Timer.c **** * Side Effects:
 326:.\Generated_Source\PSoC5/Echo_Timer.c **** *  Status register bits may be clear on read.
 327:.\Generated_Source\PSoC5/Echo_Timer.c **** *
 328:.\Generated_Source\PSoC5/Echo_Timer.c **** *******************************************************************************/
 329:.\Generated_Source\PSoC5/Echo_Timer.c **** uint8   Echo_Timer_ReadStatusRegister(void) 
 330:.\Generated_Source\PSoC5/Echo_Timer.c **** {
 279              		.loc 1 330 0
 280              		.cfi_startproc
 281              		@ args = 0, pretend = 0, frame = 0
 282              		@ frame_needed = 1, uses_anonymous_args = 0
 283              		@ link register save eliminated.
 284 0000 80B4     		push	{r7}
 285              	.LCFI14:
 286              		.cfi_def_cfa_offset 4
 287              		.cfi_offset 7, -4
 288 0002 00AF     		add	r7, sp, #0
 289              	.LCFI15:
 290              		.cfi_def_cfa_register 7
 331:.\Generated_Source\PSoC5/Echo_Timer.c ****     return (Echo_Timer_STATUS);
 291              		.loc 1 331 0
 292 0004 46F26953 		movw	r3, #25961
 293 0008 C4F20003 		movt	r3, 16384
 294 000c 1B78     		ldrb	r3, [r3, #0]
 295 000e DBB2     		uxtb	r3, r3
 332:.\Generated_Source\PSoC5/Echo_Timer.c **** }
ARM GAS  D:\Users\BertoTech\TEMP\ccihxnoz.s 			page 12


 296              		.loc 1 332 0
 297 0010 1846     		mov	r0, r3
 298 0012 BD46     		mov	sp, r7
 299 0014 80BC     		pop	{r7}
 300 0016 7047     		bx	lr
 301              		.cfi_endproc
 302              	.LFE6:
 303              		.size	Echo_Timer_ReadStatusRegister, .-Echo_Timer_ReadStatusRegister
 304              		.section	.text.Echo_Timer_ReadControlRegister,"ax",%progbits
 305              		.align	2
 306              		.global	Echo_Timer_ReadControlRegister
 307              		.thumb
 308              		.thumb_func
 309              		.type	Echo_Timer_ReadControlRegister, %function
 310              	Echo_Timer_ReadControlRegister:
 311              	.LFB7:
 333:.\Generated_Source\PSoC5/Echo_Timer.c **** 
 334:.\Generated_Source\PSoC5/Echo_Timer.c **** 
 335:.\Generated_Source\PSoC5/Echo_Timer.c **** #if (!Echo_Timer_UDB_CONTROL_REG_REMOVED) /* Remove API if control register is unused */
 336:.\Generated_Source\PSoC5/Echo_Timer.c **** 
 337:.\Generated_Source\PSoC5/Echo_Timer.c **** 
 338:.\Generated_Source\PSoC5/Echo_Timer.c **** /*******************************************************************************
 339:.\Generated_Source\PSoC5/Echo_Timer.c **** * Function Name: Echo_Timer_ReadControlRegister
 340:.\Generated_Source\PSoC5/Echo_Timer.c **** ********************************************************************************
 341:.\Generated_Source\PSoC5/Echo_Timer.c **** *
 342:.\Generated_Source\PSoC5/Echo_Timer.c **** * Summary:
 343:.\Generated_Source\PSoC5/Echo_Timer.c **** *  Reads the control register and returns it's value.
 344:.\Generated_Source\PSoC5/Echo_Timer.c **** *
 345:.\Generated_Source\PSoC5/Echo_Timer.c **** * Parameters:
 346:.\Generated_Source\PSoC5/Echo_Timer.c **** *  void
 347:.\Generated_Source\PSoC5/Echo_Timer.c **** *
 348:.\Generated_Source\PSoC5/Echo_Timer.c **** * Return:
 349:.\Generated_Source\PSoC5/Echo_Timer.c **** *  The contents of the control register
 350:.\Generated_Source\PSoC5/Echo_Timer.c **** *
 351:.\Generated_Source\PSoC5/Echo_Timer.c **** *******************************************************************************/
 352:.\Generated_Source\PSoC5/Echo_Timer.c **** uint8 Echo_Timer_ReadControlRegister(void) 
 353:.\Generated_Source\PSoC5/Echo_Timer.c **** {
 312              		.loc 1 353 0
 313              		.cfi_startproc
 314              		@ args = 0, pretend = 0, frame = 0
 315              		@ frame_needed = 1, uses_anonymous_args = 0
 316              		@ link register save eliminated.
 317 0000 80B4     		push	{r7}
 318              	.LCFI16:
 319              		.cfi_def_cfa_offset 4
 320              		.cfi_offset 7, -4
 321 0002 00AF     		add	r7, sp, #0
 322              	.LCFI17:
 323              		.cfi_def_cfa_register 7
 354:.\Generated_Source\PSoC5/Echo_Timer.c ****     #if (!Echo_Timer_UDB_CONTROL_REG_REMOVED) 
 355:.\Generated_Source\PSoC5/Echo_Timer.c ****         return ((uint8)Echo_Timer_CONTROL);
 324              		.loc 1 355 0
 325 0004 46F27953 		movw	r3, #25977
 326 0008 C4F20003 		movt	r3, 16384
 327 000c 1B78     		ldrb	r3, [r3, #0]
 328 000e DBB2     		uxtb	r3, r3
 356:.\Generated_Source\PSoC5/Echo_Timer.c ****     #else
ARM GAS  D:\Users\BertoTech\TEMP\ccihxnoz.s 			page 13


 357:.\Generated_Source\PSoC5/Echo_Timer.c ****         return (0);
 358:.\Generated_Source\PSoC5/Echo_Timer.c ****     #endif /* (!Echo_Timer_UDB_CONTROL_REG_REMOVED) */
 359:.\Generated_Source\PSoC5/Echo_Timer.c **** }
 329              		.loc 1 359 0
 330 0010 1846     		mov	r0, r3
 331 0012 BD46     		mov	sp, r7
 332 0014 80BC     		pop	{r7}
 333 0016 7047     		bx	lr
 334              		.cfi_endproc
 335              	.LFE7:
 336              		.size	Echo_Timer_ReadControlRegister, .-Echo_Timer_ReadControlRegister
 337              		.section	.text.Echo_Timer_WriteControlRegister,"ax",%progbits
 338              		.align	2
 339              		.global	Echo_Timer_WriteControlRegister
 340              		.thumb
 341              		.thumb_func
 342              		.type	Echo_Timer_WriteControlRegister, %function
 343              	Echo_Timer_WriteControlRegister:
 344              	.LFB8:
 360:.\Generated_Source\PSoC5/Echo_Timer.c **** 
 361:.\Generated_Source\PSoC5/Echo_Timer.c **** 
 362:.\Generated_Source\PSoC5/Echo_Timer.c **** /*******************************************************************************
 363:.\Generated_Source\PSoC5/Echo_Timer.c **** * Function Name: Echo_Timer_WriteControlRegister
 364:.\Generated_Source\PSoC5/Echo_Timer.c **** ********************************************************************************
 365:.\Generated_Source\PSoC5/Echo_Timer.c **** *
 366:.\Generated_Source\PSoC5/Echo_Timer.c **** * Summary:
 367:.\Generated_Source\PSoC5/Echo_Timer.c **** *  Sets the bit-field of the control register.
 368:.\Generated_Source\PSoC5/Echo_Timer.c **** *
 369:.\Generated_Source\PSoC5/Echo_Timer.c **** * Parameters:
 370:.\Generated_Source\PSoC5/Echo_Timer.c **** *  control: The contents of the control register
 371:.\Generated_Source\PSoC5/Echo_Timer.c **** *
 372:.\Generated_Source\PSoC5/Echo_Timer.c **** * Return:
 373:.\Generated_Source\PSoC5/Echo_Timer.c **** *
 374:.\Generated_Source\PSoC5/Echo_Timer.c **** *******************************************************************************/
 375:.\Generated_Source\PSoC5/Echo_Timer.c **** void Echo_Timer_WriteControlRegister(uint8 control) 
 376:.\Generated_Source\PSoC5/Echo_Timer.c **** {
 345              		.loc 1 376 0
 346              		.cfi_startproc
 347              		@ args = 0, pretend = 0, frame = 8
 348              		@ frame_needed = 1, uses_anonymous_args = 0
 349              		@ link register save eliminated.
 350 0000 80B4     		push	{r7}
 351              	.LCFI18:
 352              		.cfi_def_cfa_offset 4
 353              		.cfi_offset 7, -4
 354 0002 83B0     		sub	sp, sp, #12
 355              	.LCFI19:
 356              		.cfi_def_cfa_offset 16
 357 0004 00AF     		add	r7, sp, #0
 358              	.LCFI20:
 359              		.cfi_def_cfa_register 7
 360 0006 0346     		mov	r3, r0
 361 0008 FB71     		strb	r3, [r7, #7]
 377:.\Generated_Source\PSoC5/Echo_Timer.c ****     #if (!Echo_Timer_UDB_CONTROL_REG_REMOVED) 
 378:.\Generated_Source\PSoC5/Echo_Timer.c ****         Echo_Timer_CONTROL = control;
 362              		.loc 1 378 0
 363 000a 46F27953 		movw	r3, #25977
ARM GAS  D:\Users\BertoTech\TEMP\ccihxnoz.s 			page 14


 364 000e C4F20003 		movt	r3, 16384
 365 0012 FA79     		ldrb	r2, [r7, #7]
 366 0014 1A70     		strb	r2, [r3, #0]
 379:.\Generated_Source\PSoC5/Echo_Timer.c ****     #else
 380:.\Generated_Source\PSoC5/Echo_Timer.c ****         control = 0u;
 381:.\Generated_Source\PSoC5/Echo_Timer.c ****     #endif /* (!Echo_Timer_UDB_CONTROL_REG_REMOVED) */
 382:.\Generated_Source\PSoC5/Echo_Timer.c **** }
 367              		.loc 1 382 0
 368 0016 07F10C07 		add	r7, r7, #12
 369 001a BD46     		mov	sp, r7
 370 001c 80BC     		pop	{r7}
 371 001e 7047     		bx	lr
 372              		.cfi_endproc
 373              	.LFE8:
 374              		.size	Echo_Timer_WriteControlRegister, .-Echo_Timer_WriteControlRegister
 375              		.section	.text.Echo_Timer_ReadPeriod,"ax",%progbits
 376              		.align	2
 377              		.global	Echo_Timer_ReadPeriod
 378              		.thumb
 379              		.thumb_func
 380              		.type	Echo_Timer_ReadPeriod, %function
 381              	Echo_Timer_ReadPeriod:
 382              	.LFB9:
 383:.\Generated_Source\PSoC5/Echo_Timer.c **** 
 384:.\Generated_Source\PSoC5/Echo_Timer.c **** #endif /* Remove API if control register is unused */
 385:.\Generated_Source\PSoC5/Echo_Timer.c **** 
 386:.\Generated_Source\PSoC5/Echo_Timer.c **** 
 387:.\Generated_Source\PSoC5/Echo_Timer.c **** /*******************************************************************************
 388:.\Generated_Source\PSoC5/Echo_Timer.c **** * Function Name: Echo_Timer_ReadPeriod
 389:.\Generated_Source\PSoC5/Echo_Timer.c **** ********************************************************************************
 390:.\Generated_Source\PSoC5/Echo_Timer.c **** *
 391:.\Generated_Source\PSoC5/Echo_Timer.c **** * Summary:
 392:.\Generated_Source\PSoC5/Echo_Timer.c **** *  This function returns the current value of the Period.
 393:.\Generated_Source\PSoC5/Echo_Timer.c **** *
 394:.\Generated_Source\PSoC5/Echo_Timer.c **** * Parameters:
 395:.\Generated_Source\PSoC5/Echo_Timer.c **** *  void
 396:.\Generated_Source\PSoC5/Echo_Timer.c **** *
 397:.\Generated_Source\PSoC5/Echo_Timer.c **** * Return:
 398:.\Generated_Source\PSoC5/Echo_Timer.c **** *  The present value of the counter.
 399:.\Generated_Source\PSoC5/Echo_Timer.c **** *
 400:.\Generated_Source\PSoC5/Echo_Timer.c **** *******************************************************************************/
 401:.\Generated_Source\PSoC5/Echo_Timer.c **** uint16 Echo_Timer_ReadPeriod(void) 
 402:.\Generated_Source\PSoC5/Echo_Timer.c **** {
 383              		.loc 1 402 0
 384              		.cfi_startproc
 385              		@ args = 0, pretend = 0, frame = 0
 386              		@ frame_needed = 1, uses_anonymous_args = 0
 387              		@ link register save eliminated.
 388 0000 80B4     		push	{r7}
 389              	.LCFI21:
 390              		.cfi_def_cfa_offset 4
 391              		.cfi_offset 7, -4
 392 0002 00AF     		add	r7, sp, #0
 393              	.LCFI22:
 394              		.cfi_def_cfa_register 7
 403:.\Generated_Source\PSoC5/Echo_Timer.c ****    #if(Echo_Timer_UsingFixedFunction)
 404:.\Generated_Source\PSoC5/Echo_Timer.c ****        return ((uint16)CY_GET_REG16(Echo_Timer_PERIOD_LSB_PTR));
ARM GAS  D:\Users\BertoTech\TEMP\ccihxnoz.s 			page 15


 405:.\Generated_Source\PSoC5/Echo_Timer.c ****    #else
 406:.\Generated_Source\PSoC5/Echo_Timer.c ****        return (CY_GET_REG16(Echo_Timer_PERIOD_LSB_PTR));
 395              		.loc 1 406 0
 396 0004 46F65023 		movw	r3, #27216
 397 0008 C4F20003 		movt	r3, 16384
 398 000c 1B88     		ldrh	r3, [r3, #0]	@ movhi
 399 000e 9BB2     		uxth	r3, r3
 407:.\Generated_Source\PSoC5/Echo_Timer.c ****    #endif /* (Echo_Timer_UsingFixedFunction) */
 408:.\Generated_Source\PSoC5/Echo_Timer.c **** }
 400              		.loc 1 408 0
 401 0010 1846     		mov	r0, r3
 402 0012 BD46     		mov	sp, r7
 403 0014 80BC     		pop	{r7}
 404 0016 7047     		bx	lr
 405              		.cfi_endproc
 406              	.LFE9:
 407              		.size	Echo_Timer_ReadPeriod, .-Echo_Timer_ReadPeriod
 408              		.section	.text.Echo_Timer_WritePeriod,"ax",%progbits
 409              		.align	2
 410              		.global	Echo_Timer_WritePeriod
 411              		.thumb
 412              		.thumb_func
 413              		.type	Echo_Timer_WritePeriod, %function
 414              	Echo_Timer_WritePeriod:
 415              	.LFB10:
 409:.\Generated_Source\PSoC5/Echo_Timer.c **** 
 410:.\Generated_Source\PSoC5/Echo_Timer.c **** 
 411:.\Generated_Source\PSoC5/Echo_Timer.c **** /*******************************************************************************
 412:.\Generated_Source\PSoC5/Echo_Timer.c **** * Function Name: Echo_Timer_WritePeriod
 413:.\Generated_Source\PSoC5/Echo_Timer.c **** ********************************************************************************
 414:.\Generated_Source\PSoC5/Echo_Timer.c **** *
 415:.\Generated_Source\PSoC5/Echo_Timer.c **** * Summary:
 416:.\Generated_Source\PSoC5/Echo_Timer.c **** *  This function is used to change the period of the counter.  The new period
 417:.\Generated_Source\PSoC5/Echo_Timer.c **** *  will be loaded the next time terminal count is detected.
 418:.\Generated_Source\PSoC5/Echo_Timer.c **** *
 419:.\Generated_Source\PSoC5/Echo_Timer.c **** * Parameters:
 420:.\Generated_Source\PSoC5/Echo_Timer.c **** *  period: This value may be between 1 and (2^Resolution)-1.  A value of 0 will
 421:.\Generated_Source\PSoC5/Echo_Timer.c **** *          result in the counter remaining at zero.
 422:.\Generated_Source\PSoC5/Echo_Timer.c **** *
 423:.\Generated_Source\PSoC5/Echo_Timer.c **** * Return:
 424:.\Generated_Source\PSoC5/Echo_Timer.c **** *  void
 425:.\Generated_Source\PSoC5/Echo_Timer.c **** *
 426:.\Generated_Source\PSoC5/Echo_Timer.c **** *******************************************************************************/
 427:.\Generated_Source\PSoC5/Echo_Timer.c **** void Echo_Timer_WritePeriod(uint16 period) 
 428:.\Generated_Source\PSoC5/Echo_Timer.c **** {
 416              		.loc 1 428 0
 417              		.cfi_startproc
 418              		@ args = 0, pretend = 0, frame = 8
 419              		@ frame_needed = 1, uses_anonymous_args = 0
 420              		@ link register save eliminated.
 421 0000 80B4     		push	{r7}
 422              	.LCFI23:
 423              		.cfi_def_cfa_offset 4
 424              		.cfi_offset 7, -4
 425 0002 83B0     		sub	sp, sp, #12
 426              	.LCFI24:
 427              		.cfi_def_cfa_offset 16
ARM GAS  D:\Users\BertoTech\TEMP\ccihxnoz.s 			page 16


 428 0004 00AF     		add	r7, sp, #0
 429              	.LCFI25:
 430              		.cfi_def_cfa_register 7
 431 0006 0346     		mov	r3, r0
 432 0008 FB80     		strh	r3, [r7, #6]	@ movhi
 429:.\Generated_Source\PSoC5/Echo_Timer.c ****     #if(Echo_Timer_UsingFixedFunction)
 430:.\Generated_Source\PSoC5/Echo_Timer.c ****         uint16 period_temp = (uint16)period;
 431:.\Generated_Source\PSoC5/Echo_Timer.c ****         CY_SET_REG16(Echo_Timer_PERIOD_LSB_PTR, period_temp);
 432:.\Generated_Source\PSoC5/Echo_Timer.c ****     #else
 433:.\Generated_Source\PSoC5/Echo_Timer.c ****         CY_SET_REG16(Echo_Timer_PERIOD_LSB_PTR, period);
 433              		.loc 1 433 0
 434 000a 46F65023 		movw	r3, #27216
 435 000e C4F20003 		movt	r3, 16384
 436 0012 FA88     		ldrh	r2, [r7, #6]	@ movhi
 437 0014 1A80     		strh	r2, [r3, #0]	@ movhi
 434:.\Generated_Source\PSoC5/Echo_Timer.c ****     #endif /*Write Period value with appropriate resolution suffix depending on UDB or fixed functi
 435:.\Generated_Source\PSoC5/Echo_Timer.c **** }
 438              		.loc 1 435 0
 439 0016 07F10C07 		add	r7, r7, #12
 440 001a BD46     		mov	sp, r7
 441 001c 80BC     		pop	{r7}
 442 001e 7047     		bx	lr
 443              		.cfi_endproc
 444              	.LFE10:
 445              		.size	Echo_Timer_WritePeriod, .-Echo_Timer_WritePeriod
 446              		.section	.text.Echo_Timer_ReadCapture,"ax",%progbits
 447              		.align	2
 448              		.global	Echo_Timer_ReadCapture
 449              		.thumb
 450              		.thumb_func
 451              		.type	Echo_Timer_ReadCapture, %function
 452              	Echo_Timer_ReadCapture:
 453              	.LFB11:
 436:.\Generated_Source\PSoC5/Echo_Timer.c **** 
 437:.\Generated_Source\PSoC5/Echo_Timer.c **** 
 438:.\Generated_Source\PSoC5/Echo_Timer.c **** /*******************************************************************************
 439:.\Generated_Source\PSoC5/Echo_Timer.c **** * Function Name: Echo_Timer_ReadCapture
 440:.\Generated_Source\PSoC5/Echo_Timer.c **** ********************************************************************************
 441:.\Generated_Source\PSoC5/Echo_Timer.c **** *
 442:.\Generated_Source\PSoC5/Echo_Timer.c **** * Summary:
 443:.\Generated_Source\PSoC5/Echo_Timer.c **** *  This function returns the last value captured.
 444:.\Generated_Source\PSoC5/Echo_Timer.c **** *
 445:.\Generated_Source\PSoC5/Echo_Timer.c **** * Parameters:
 446:.\Generated_Source\PSoC5/Echo_Timer.c **** *  void
 447:.\Generated_Source\PSoC5/Echo_Timer.c **** *
 448:.\Generated_Source\PSoC5/Echo_Timer.c **** * Return:
 449:.\Generated_Source\PSoC5/Echo_Timer.c **** *  Present Capture value.
 450:.\Generated_Source\PSoC5/Echo_Timer.c **** *
 451:.\Generated_Source\PSoC5/Echo_Timer.c **** *******************************************************************************/
 452:.\Generated_Source\PSoC5/Echo_Timer.c **** uint16 Echo_Timer_ReadCapture(void) 
 453:.\Generated_Source\PSoC5/Echo_Timer.c **** {
 454              		.loc 1 453 0
 455              		.cfi_startproc
 456              		@ args = 0, pretend = 0, frame = 0
 457              		@ frame_needed = 1, uses_anonymous_args = 0
 458              		@ link register save eliminated.
 459 0000 80B4     		push	{r7}
ARM GAS  D:\Users\BertoTech\TEMP\ccihxnoz.s 			page 17


 460              	.LCFI26:
 461              		.cfi_def_cfa_offset 4
 462              		.cfi_offset 7, -4
 463 0002 00AF     		add	r7, sp, #0
 464              	.LCFI27:
 465              		.cfi_def_cfa_register 7
 454:.\Generated_Source\PSoC5/Echo_Timer.c ****    #if(Echo_Timer_UsingFixedFunction)
 455:.\Generated_Source\PSoC5/Echo_Timer.c ****        return ((uint16)CY_GET_REG16(Echo_Timer_CAPTURE_LSB_PTR));
 456:.\Generated_Source\PSoC5/Echo_Timer.c ****    #else
 457:.\Generated_Source\PSoC5/Echo_Timer.c ****        return (CY_GET_REG16(Echo_Timer_CAPTURE_LSB_PTR));
 466              		.loc 1 457 0
 467 0004 46F69023 		movw	r3, #27280
 468 0008 C4F20003 		movt	r3, 16384
 469 000c 1B88     		ldrh	r3, [r3, #0]	@ movhi
 470 000e 9BB2     		uxth	r3, r3
 458:.\Generated_Source\PSoC5/Echo_Timer.c ****    #endif /* (Echo_Timer_UsingFixedFunction) */
 459:.\Generated_Source\PSoC5/Echo_Timer.c **** }
 471              		.loc 1 459 0
 472 0010 1846     		mov	r0, r3
 473 0012 BD46     		mov	sp, r7
 474 0014 80BC     		pop	{r7}
 475 0016 7047     		bx	lr
 476              		.cfi_endproc
 477              	.LFE11:
 478              		.size	Echo_Timer_ReadCapture, .-Echo_Timer_ReadCapture
 479              		.section	.text.Echo_Timer_WriteCounter,"ax",%progbits
 480              		.align	2
 481              		.global	Echo_Timer_WriteCounter
 482              		.thumb
 483              		.thumb_func
 484              		.type	Echo_Timer_WriteCounter, %function
 485              	Echo_Timer_WriteCounter:
 486              	.LFB12:
 460:.\Generated_Source\PSoC5/Echo_Timer.c **** 
 461:.\Generated_Source\PSoC5/Echo_Timer.c **** 
 462:.\Generated_Source\PSoC5/Echo_Timer.c **** /*******************************************************************************
 463:.\Generated_Source\PSoC5/Echo_Timer.c **** * Function Name: Echo_Timer_WriteCounter
 464:.\Generated_Source\PSoC5/Echo_Timer.c **** ********************************************************************************
 465:.\Generated_Source\PSoC5/Echo_Timer.c **** *
 466:.\Generated_Source\PSoC5/Echo_Timer.c **** * Summary:
 467:.\Generated_Source\PSoC5/Echo_Timer.c **** *  This funtion is used to set the counter to a specific value
 468:.\Generated_Source\PSoC5/Echo_Timer.c **** *
 469:.\Generated_Source\PSoC5/Echo_Timer.c **** * Parameters:
 470:.\Generated_Source\PSoC5/Echo_Timer.c **** *  counter:  New counter value.
 471:.\Generated_Source\PSoC5/Echo_Timer.c **** *
 472:.\Generated_Source\PSoC5/Echo_Timer.c **** * Return:
 473:.\Generated_Source\PSoC5/Echo_Timer.c **** *  void
 474:.\Generated_Source\PSoC5/Echo_Timer.c **** *
 475:.\Generated_Source\PSoC5/Echo_Timer.c **** *******************************************************************************/
 476:.\Generated_Source\PSoC5/Echo_Timer.c **** void Echo_Timer_WriteCounter(uint16 counter) 
 477:.\Generated_Source\PSoC5/Echo_Timer.c **** {
 487              		.loc 1 477 0
 488              		.cfi_startproc
 489              		@ args = 0, pretend = 0, frame = 8
 490              		@ frame_needed = 1, uses_anonymous_args = 0
 491              		@ link register save eliminated.
 492 0000 80B4     		push	{r7}
ARM GAS  D:\Users\BertoTech\TEMP\ccihxnoz.s 			page 18


 493              	.LCFI28:
 494              		.cfi_def_cfa_offset 4
 495              		.cfi_offset 7, -4
 496 0002 83B0     		sub	sp, sp, #12
 497              	.LCFI29:
 498              		.cfi_def_cfa_offset 16
 499 0004 00AF     		add	r7, sp, #0
 500              	.LCFI30:
 501              		.cfi_def_cfa_register 7
 502 0006 0346     		mov	r3, r0
 503 0008 FB80     		strh	r3, [r7, #6]	@ movhi
 478:.\Generated_Source\PSoC5/Echo_Timer.c ****    #if(Echo_Timer_UsingFixedFunction)
 479:.\Generated_Source\PSoC5/Echo_Timer.c ****         /* This functionality is removed until a FixedFunction HW update to
 480:.\Generated_Source\PSoC5/Echo_Timer.c ****          * allow this register to be written
 481:.\Generated_Source\PSoC5/Echo_Timer.c ****          */
 482:.\Generated_Source\PSoC5/Echo_Timer.c ****         CY_SET_REG16(Echo_Timer_COUNTER_LSB_PTR, (uint16)counter);
 483:.\Generated_Source\PSoC5/Echo_Timer.c ****         
 484:.\Generated_Source\PSoC5/Echo_Timer.c ****     #else
 485:.\Generated_Source\PSoC5/Echo_Timer.c ****         CY_SET_REG16(Echo_Timer_COUNTER_LSB_PTR, counter);
 504              		.loc 1 485 0
 505 000a 46F61023 		movw	r3, #27152
 506 000e C4F20003 		movt	r3, 16384
 507 0012 FA88     		ldrh	r2, [r7, #6]	@ movhi
 508 0014 1A80     		strh	r2, [r3, #0]	@ movhi
 486:.\Generated_Source\PSoC5/Echo_Timer.c ****     #endif /* Set Write Counter only for the UDB implementation (Write Counter not available in fix
 487:.\Generated_Source\PSoC5/Echo_Timer.c **** }
 509              		.loc 1 487 0
 510 0016 07F10C07 		add	r7, r7, #12
 511 001a BD46     		mov	sp, r7
 512 001c 80BC     		pop	{r7}
 513 001e 7047     		bx	lr
 514              		.cfi_endproc
 515              	.LFE12:
 516              		.size	Echo_Timer_WriteCounter, .-Echo_Timer_WriteCounter
 517              		.section	.text.Echo_Timer_ReadCounter,"ax",%progbits
 518              		.align	2
 519              		.global	Echo_Timer_ReadCounter
 520              		.thumb
 521              		.thumb_func
 522              		.type	Echo_Timer_ReadCounter, %function
 523              	Echo_Timer_ReadCounter:
 524              	.LFB13:
 488:.\Generated_Source\PSoC5/Echo_Timer.c **** 
 489:.\Generated_Source\PSoC5/Echo_Timer.c **** 
 490:.\Generated_Source\PSoC5/Echo_Timer.c **** /*******************************************************************************
 491:.\Generated_Source\PSoC5/Echo_Timer.c **** * Function Name: Echo_Timer_ReadCounter
 492:.\Generated_Source\PSoC5/Echo_Timer.c **** ********************************************************************************
 493:.\Generated_Source\PSoC5/Echo_Timer.c **** *
 494:.\Generated_Source\PSoC5/Echo_Timer.c **** * Summary:
 495:.\Generated_Source\PSoC5/Echo_Timer.c **** *  This function returns the current counter value.
 496:.\Generated_Source\PSoC5/Echo_Timer.c **** *
 497:.\Generated_Source\PSoC5/Echo_Timer.c **** * Parameters:
 498:.\Generated_Source\PSoC5/Echo_Timer.c **** *  void
 499:.\Generated_Source\PSoC5/Echo_Timer.c **** *
 500:.\Generated_Source\PSoC5/Echo_Timer.c **** * Return:
 501:.\Generated_Source\PSoC5/Echo_Timer.c **** *  Present compare value.
 502:.\Generated_Source\PSoC5/Echo_Timer.c **** *
ARM GAS  D:\Users\BertoTech\TEMP\ccihxnoz.s 			page 19


 503:.\Generated_Source\PSoC5/Echo_Timer.c **** *******************************************************************************/
 504:.\Generated_Source\PSoC5/Echo_Timer.c **** uint16 Echo_Timer_ReadCounter(void) 
 505:.\Generated_Source\PSoC5/Echo_Timer.c **** {
 525              		.loc 1 505 0
 526              		.cfi_startproc
 527              		@ args = 0, pretend = 0, frame = 0
 528              		@ frame_needed = 1, uses_anonymous_args = 0
 529              		@ link register save eliminated.
 530 0000 80B4     		push	{r7}
 531              	.LCFI31:
 532              		.cfi_def_cfa_offset 4
 533              		.cfi_offset 7, -4
 534 0002 00AF     		add	r7, sp, #0
 535              	.LCFI32:
 536              		.cfi_def_cfa_register 7
 506:.\Generated_Source\PSoC5/Echo_Timer.c ****     /* Force capture by reading Accumulator */
 507:.\Generated_Source\PSoC5/Echo_Timer.c ****     /* Must first do a software capture to be able to read the counter */
 508:.\Generated_Source\PSoC5/Echo_Timer.c ****     /* It is up to the user code to make sure there isn't already captured data in the FIFO */
 509:.\Generated_Source\PSoC5/Echo_Timer.c ****     #if(Echo_Timer_UsingFixedFunction)
 510:.\Generated_Source\PSoC5/Echo_Timer.c ****         (void)CY_GET_REG16(Echo_Timer_COUNTER_LSB_PTR);
 511:.\Generated_Source\PSoC5/Echo_Timer.c ****     #else
 512:.\Generated_Source\PSoC5/Echo_Timer.c ****         (void)CY_GET_REG8(Echo_Timer_COUNTER_LSB_PTR_8BIT);
 537              		.loc 1 512 0
 538 0004 46F20853 		movw	r3, #25864
 539 0008 C4F20003 		movt	r3, 16384
 540 000c 1B78     		ldrb	r3, [r3, #0]
 513:.\Generated_Source\PSoC5/Echo_Timer.c ****     #endif/* (Echo_Timer_UsingFixedFunction) */
 514:.\Generated_Source\PSoC5/Echo_Timer.c **** 
 515:.\Generated_Source\PSoC5/Echo_Timer.c ****     /* Read the data from the FIFO (or capture register for Fixed Function)*/
 516:.\Generated_Source\PSoC5/Echo_Timer.c ****     #if(Echo_Timer_UsingFixedFunction)
 517:.\Generated_Source\PSoC5/Echo_Timer.c ****         return ((uint16)CY_GET_REG16(Echo_Timer_CAPTURE_LSB_PTR));
 518:.\Generated_Source\PSoC5/Echo_Timer.c ****     #else
 519:.\Generated_Source\PSoC5/Echo_Timer.c ****         return (CY_GET_REG16(Echo_Timer_CAPTURE_LSB_PTR));
 541              		.loc 1 519 0
 542 000e 46F69023 		movw	r3, #27280
 543 0012 C4F20003 		movt	r3, 16384
 544 0016 1B88     		ldrh	r3, [r3, #0]	@ movhi
 545 0018 9BB2     		uxth	r3, r3
 520:.\Generated_Source\PSoC5/Echo_Timer.c ****     #endif /* (Echo_Timer_UsingFixedFunction) */
 521:.\Generated_Source\PSoC5/Echo_Timer.c **** }
 546              		.loc 1 521 0
 547 001a 1846     		mov	r0, r3
 548 001c BD46     		mov	sp, r7
 549 001e 80BC     		pop	{r7}
 550 0020 7047     		bx	lr
 551              		.cfi_endproc
 552              	.LFE13:
 553              		.size	Echo_Timer_ReadCounter, .-Echo_Timer_ReadCounter
 554 0022 00BF     		.section	.text.Echo_Timer_SetInterruptCount,"ax",%progbits
 555              		.align	2
 556              		.global	Echo_Timer_SetInterruptCount
 557              		.thumb
 558              		.thumb_func
 559              		.type	Echo_Timer_SetInterruptCount, %function
 560              	Echo_Timer_SetInterruptCount:
 561              	.LFB14:
 522:.\Generated_Source\PSoC5/Echo_Timer.c **** 
ARM GAS  D:\Users\BertoTech\TEMP\ccihxnoz.s 			page 20


 523:.\Generated_Source\PSoC5/Echo_Timer.c **** 
 524:.\Generated_Source\PSoC5/Echo_Timer.c **** #if(!Echo_Timer_UsingFixedFunction) /* UDB Specific Functions */
 525:.\Generated_Source\PSoC5/Echo_Timer.c **** 
 526:.\Generated_Source\PSoC5/Echo_Timer.c ****     
 527:.\Generated_Source\PSoC5/Echo_Timer.c **** /*******************************************************************************
 528:.\Generated_Source\PSoC5/Echo_Timer.c ****  * The functions below this point are only available using the UDB
 529:.\Generated_Source\PSoC5/Echo_Timer.c ****  * implementation.  If a feature is selected, then the API is enabled.
 530:.\Generated_Source\PSoC5/Echo_Timer.c ****  ******************************************************************************/
 531:.\Generated_Source\PSoC5/Echo_Timer.c **** 
 532:.\Generated_Source\PSoC5/Echo_Timer.c **** 
 533:.\Generated_Source\PSoC5/Echo_Timer.c **** #if (Echo_Timer_SoftwareCaptureMode)
 534:.\Generated_Source\PSoC5/Echo_Timer.c **** 
 535:.\Generated_Source\PSoC5/Echo_Timer.c **** 
 536:.\Generated_Source\PSoC5/Echo_Timer.c **** /*******************************************************************************
 537:.\Generated_Source\PSoC5/Echo_Timer.c **** * Function Name: Echo_Timer_SetCaptureMode
 538:.\Generated_Source\PSoC5/Echo_Timer.c **** ********************************************************************************
 539:.\Generated_Source\PSoC5/Echo_Timer.c **** *
 540:.\Generated_Source\PSoC5/Echo_Timer.c **** * Summary:
 541:.\Generated_Source\PSoC5/Echo_Timer.c **** *  This function sets the capture mode to either rising or falling edge.
 542:.\Generated_Source\PSoC5/Echo_Timer.c **** *
 543:.\Generated_Source\PSoC5/Echo_Timer.c **** * Parameters:
 544:.\Generated_Source\PSoC5/Echo_Timer.c **** *  captureMode: This parameter sets the capture mode of the UDB capture feature
 545:.\Generated_Source\PSoC5/Echo_Timer.c **** *  The parameter values are defined using the
 546:.\Generated_Source\PSoC5/Echo_Timer.c **** *  #define Echo_Timer__B_TIMER__CM_NONE 0
 547:.\Generated_Source\PSoC5/Echo_Timer.c **** #define Echo_Timer__B_TIMER__CM_RISINGEDGE 1
 548:.\Generated_Source\PSoC5/Echo_Timer.c **** #define Echo_Timer__B_TIMER__CM_FALLINGEDGE 2
 549:.\Generated_Source\PSoC5/Echo_Timer.c **** #define Echo_Timer__B_TIMER__CM_EITHEREDGE 3
 550:.\Generated_Source\PSoC5/Echo_Timer.c **** #define Echo_Timer__B_TIMER__CM_SOFTWARE 4
 551:.\Generated_Source\PSoC5/Echo_Timer.c ****  identifiers
 552:.\Generated_Source\PSoC5/Echo_Timer.c **** *  The following are the possible values of the parameter
 553:.\Generated_Source\PSoC5/Echo_Timer.c **** *  Echo_Timer__B_TIMER__CM_NONE        - Set Capture mode to None
 554:.\Generated_Source\PSoC5/Echo_Timer.c **** *  Echo_Timer__B_TIMER__CM_RISINGEDGE  - Rising edge of Capture input
 555:.\Generated_Source\PSoC5/Echo_Timer.c **** *  Echo_Timer__B_TIMER__CM_FALLINGEDGE - Falling edge of Capture input
 556:.\Generated_Source\PSoC5/Echo_Timer.c **** *  Echo_Timer__B_TIMER__CM_EITHEREDGE  - Either edge of Capture input
 557:.\Generated_Source\PSoC5/Echo_Timer.c **** *
 558:.\Generated_Source\PSoC5/Echo_Timer.c **** * Return:
 559:.\Generated_Source\PSoC5/Echo_Timer.c **** *  void
 560:.\Generated_Source\PSoC5/Echo_Timer.c **** *
 561:.\Generated_Source\PSoC5/Echo_Timer.c **** *******************************************************************************/
 562:.\Generated_Source\PSoC5/Echo_Timer.c **** void Echo_Timer_SetCaptureMode(uint8 captureMode) 
 563:.\Generated_Source\PSoC5/Echo_Timer.c **** {
 564:.\Generated_Source\PSoC5/Echo_Timer.c ****     /* This must only set to two bits of the control register associated */
 565:.\Generated_Source\PSoC5/Echo_Timer.c ****     captureMode = ((uint8)((uint8)captureMode << Echo_Timer_CTRL_CAP_MODE_SHIFT));
 566:.\Generated_Source\PSoC5/Echo_Timer.c ****     captureMode &= (Echo_Timer_CTRL_CAP_MODE_MASK);
 567:.\Generated_Source\PSoC5/Echo_Timer.c **** 
 568:.\Generated_Source\PSoC5/Echo_Timer.c ****     #if (!Echo_Timer_UDB_CONTROL_REG_REMOVED)
 569:.\Generated_Source\PSoC5/Echo_Timer.c ****         /* Clear the Current Setting */
 570:.\Generated_Source\PSoC5/Echo_Timer.c ****         Echo_Timer_CONTROL &= ((uint8)(~Echo_Timer_CTRL_CAP_MODE_MASK));
 571:.\Generated_Source\PSoC5/Echo_Timer.c **** 
 572:.\Generated_Source\PSoC5/Echo_Timer.c ****         /* Write The New Setting */
 573:.\Generated_Source\PSoC5/Echo_Timer.c ****         Echo_Timer_CONTROL |= captureMode;
 574:.\Generated_Source\PSoC5/Echo_Timer.c ****     #endif /* (!Echo_Timer_UDB_CONTROL_REG_REMOVED) */
 575:.\Generated_Source\PSoC5/Echo_Timer.c **** }
 576:.\Generated_Source\PSoC5/Echo_Timer.c **** #endif /* Remove API if Capture Mode is not Software Controlled */
 577:.\Generated_Source\PSoC5/Echo_Timer.c **** 
 578:.\Generated_Source\PSoC5/Echo_Timer.c **** 
 579:.\Generated_Source\PSoC5/Echo_Timer.c **** #if (Echo_Timer_SoftwareTriggerMode)
ARM GAS  D:\Users\BertoTech\TEMP\ccihxnoz.s 			page 21


 580:.\Generated_Source\PSoC5/Echo_Timer.c **** 
 581:.\Generated_Source\PSoC5/Echo_Timer.c **** 
 582:.\Generated_Source\PSoC5/Echo_Timer.c **** /*******************************************************************************
 583:.\Generated_Source\PSoC5/Echo_Timer.c **** * Function Name: Echo_Timer_SetTriggerMode
 584:.\Generated_Source\PSoC5/Echo_Timer.c **** ********************************************************************************
 585:.\Generated_Source\PSoC5/Echo_Timer.c **** *
 586:.\Generated_Source\PSoC5/Echo_Timer.c **** * Summary:
 587:.\Generated_Source\PSoC5/Echo_Timer.c **** *  This function sets the trigger input mode
 588:.\Generated_Source\PSoC5/Echo_Timer.c **** *
 589:.\Generated_Source\PSoC5/Echo_Timer.c **** * Parameters:
 590:.\Generated_Source\PSoC5/Echo_Timer.c **** *  triggerMode: Pass one of the pre-defined Trigger Modes (except Software)
 591:.\Generated_Source\PSoC5/Echo_Timer.c ****     #define Echo_Timer__B_TIMER__TM_NONE 0x00u
 592:.\Generated_Source\PSoC5/Echo_Timer.c ****     #define Echo_Timer__B_TIMER__TM_RISINGEDGE 0x04u
 593:.\Generated_Source\PSoC5/Echo_Timer.c ****     #define Echo_Timer__B_TIMER__TM_FALLINGEDGE 0x08u
 594:.\Generated_Source\PSoC5/Echo_Timer.c ****     #define Echo_Timer__B_TIMER__TM_EITHEREDGE 0x0Cu
 595:.\Generated_Source\PSoC5/Echo_Timer.c ****     #define Echo_Timer__B_TIMER__TM_SOFTWARE 0x10u
 596:.\Generated_Source\PSoC5/Echo_Timer.c **** *
 597:.\Generated_Source\PSoC5/Echo_Timer.c **** * Return:
 598:.\Generated_Source\PSoC5/Echo_Timer.c **** *  void
 599:.\Generated_Source\PSoC5/Echo_Timer.c **** *
 600:.\Generated_Source\PSoC5/Echo_Timer.c **** *******************************************************************************/
 601:.\Generated_Source\PSoC5/Echo_Timer.c **** void Echo_Timer_SetTriggerMode(uint8 triggerMode) 
 602:.\Generated_Source\PSoC5/Echo_Timer.c **** {
 603:.\Generated_Source\PSoC5/Echo_Timer.c ****     /* This must only set to two bits of the control register associated */
 604:.\Generated_Source\PSoC5/Echo_Timer.c ****     triggerMode &= Echo_Timer_CTRL_TRIG_MODE_MASK;
 605:.\Generated_Source\PSoC5/Echo_Timer.c **** 
 606:.\Generated_Source\PSoC5/Echo_Timer.c ****     #if (!Echo_Timer_UDB_CONTROL_REG_REMOVED)   /* Remove assignment if control register is removed
 607:.\Generated_Source\PSoC5/Echo_Timer.c ****     
 608:.\Generated_Source\PSoC5/Echo_Timer.c ****         /* Clear the Current Setting */
 609:.\Generated_Source\PSoC5/Echo_Timer.c ****         Echo_Timer_CONTROL &= ((uint8)(~Echo_Timer_CTRL_TRIG_MODE_MASK));
 610:.\Generated_Source\PSoC5/Echo_Timer.c **** 
 611:.\Generated_Source\PSoC5/Echo_Timer.c ****         /* Write The New Setting */
 612:.\Generated_Source\PSoC5/Echo_Timer.c ****         Echo_Timer_CONTROL |= (triggerMode | Echo_Timer__B_TIMER__TM_SOFTWARE);
 613:.\Generated_Source\PSoC5/Echo_Timer.c ****     #endif /* Remove code section if control register is not used */
 614:.\Generated_Source\PSoC5/Echo_Timer.c **** }
 615:.\Generated_Source\PSoC5/Echo_Timer.c **** #endif /* Remove API if Trigger Mode is not Software Controlled */
 616:.\Generated_Source\PSoC5/Echo_Timer.c **** 
 617:.\Generated_Source\PSoC5/Echo_Timer.c **** #if (Echo_Timer_EnableTriggerMode)
 618:.\Generated_Source\PSoC5/Echo_Timer.c **** 
 619:.\Generated_Source\PSoC5/Echo_Timer.c **** 
 620:.\Generated_Source\PSoC5/Echo_Timer.c **** /*******************************************************************************
 621:.\Generated_Source\PSoC5/Echo_Timer.c **** * Function Name: Echo_Timer_EnableTrigger
 622:.\Generated_Source\PSoC5/Echo_Timer.c **** ********************************************************************************
 623:.\Generated_Source\PSoC5/Echo_Timer.c **** *
 624:.\Generated_Source\PSoC5/Echo_Timer.c **** * Summary:
 625:.\Generated_Source\PSoC5/Echo_Timer.c **** *  Sets the control bit enabling Hardware Trigger mode
 626:.\Generated_Source\PSoC5/Echo_Timer.c **** *
 627:.\Generated_Source\PSoC5/Echo_Timer.c **** * Parameters:
 628:.\Generated_Source\PSoC5/Echo_Timer.c **** *  void
 629:.\Generated_Source\PSoC5/Echo_Timer.c **** *
 630:.\Generated_Source\PSoC5/Echo_Timer.c **** * Return:
 631:.\Generated_Source\PSoC5/Echo_Timer.c **** *  void
 632:.\Generated_Source\PSoC5/Echo_Timer.c **** *
 633:.\Generated_Source\PSoC5/Echo_Timer.c **** *******************************************************************************/
 634:.\Generated_Source\PSoC5/Echo_Timer.c **** void Echo_Timer_EnableTrigger(void) 
 635:.\Generated_Source\PSoC5/Echo_Timer.c **** {
 636:.\Generated_Source\PSoC5/Echo_Timer.c ****     #if (!Echo_Timer_UDB_CONTROL_REG_REMOVED)   /* Remove assignment if control register is removed
ARM GAS  D:\Users\BertoTech\TEMP\ccihxnoz.s 			page 22


 637:.\Generated_Source\PSoC5/Echo_Timer.c ****         Echo_Timer_CONTROL |= Echo_Timer_CTRL_TRIG_EN;
 638:.\Generated_Source\PSoC5/Echo_Timer.c ****     #endif /* Remove code section if control register is not used */
 639:.\Generated_Source\PSoC5/Echo_Timer.c **** }
 640:.\Generated_Source\PSoC5/Echo_Timer.c **** 
 641:.\Generated_Source\PSoC5/Echo_Timer.c **** 
 642:.\Generated_Source\PSoC5/Echo_Timer.c **** /*******************************************************************************
 643:.\Generated_Source\PSoC5/Echo_Timer.c **** * Function Name: Echo_Timer_DisableTrigger
 644:.\Generated_Source\PSoC5/Echo_Timer.c **** ********************************************************************************
 645:.\Generated_Source\PSoC5/Echo_Timer.c **** *
 646:.\Generated_Source\PSoC5/Echo_Timer.c **** * Summary:
 647:.\Generated_Source\PSoC5/Echo_Timer.c **** *  Clears the control bit enabling Hardware Trigger mode
 648:.\Generated_Source\PSoC5/Echo_Timer.c **** *
 649:.\Generated_Source\PSoC5/Echo_Timer.c **** * Parameters:
 650:.\Generated_Source\PSoC5/Echo_Timer.c **** *  void
 651:.\Generated_Source\PSoC5/Echo_Timer.c **** *
 652:.\Generated_Source\PSoC5/Echo_Timer.c **** * Return:
 653:.\Generated_Source\PSoC5/Echo_Timer.c **** *  void
 654:.\Generated_Source\PSoC5/Echo_Timer.c **** *
 655:.\Generated_Source\PSoC5/Echo_Timer.c **** *******************************************************************************/
 656:.\Generated_Source\PSoC5/Echo_Timer.c **** void Echo_Timer_DisableTrigger(void) 
 657:.\Generated_Source\PSoC5/Echo_Timer.c **** {
 658:.\Generated_Source\PSoC5/Echo_Timer.c ****     #if (!Echo_Timer_UDB_CONTROL_REG_REMOVED )   /* Remove assignment if control register is remove
 659:.\Generated_Source\PSoC5/Echo_Timer.c ****         Echo_Timer_CONTROL &= ((uint8)(~Echo_Timer_CTRL_TRIG_EN));
 660:.\Generated_Source\PSoC5/Echo_Timer.c ****     #endif /* Remove code section if control register is not used */
 661:.\Generated_Source\PSoC5/Echo_Timer.c **** }
 662:.\Generated_Source\PSoC5/Echo_Timer.c **** #endif /* Remove API is Trigger Mode is set to None */
 663:.\Generated_Source\PSoC5/Echo_Timer.c **** 
 664:.\Generated_Source\PSoC5/Echo_Timer.c **** #if(Echo_Timer_InterruptOnCaptureCount)
 665:.\Generated_Source\PSoC5/Echo_Timer.c **** 
 666:.\Generated_Source\PSoC5/Echo_Timer.c **** 
 667:.\Generated_Source\PSoC5/Echo_Timer.c **** /*******************************************************************************
 668:.\Generated_Source\PSoC5/Echo_Timer.c **** * Function Name: Echo_Timer_SetInterruptCount
 669:.\Generated_Source\PSoC5/Echo_Timer.c **** ********************************************************************************
 670:.\Generated_Source\PSoC5/Echo_Timer.c **** *
 671:.\Generated_Source\PSoC5/Echo_Timer.c **** * Summary:
 672:.\Generated_Source\PSoC5/Echo_Timer.c **** *  This function sets the capture count before an interrupt is triggered.
 673:.\Generated_Source\PSoC5/Echo_Timer.c **** *
 674:.\Generated_Source\PSoC5/Echo_Timer.c **** * Parameters:
 675:.\Generated_Source\PSoC5/Echo_Timer.c **** *  interruptCount:  A value between 0 and 3 is valid.  If the value is 0, then
 676:.\Generated_Source\PSoC5/Echo_Timer.c **** *                   an interrupt will occur each time a capture occurs.
 677:.\Generated_Source\PSoC5/Echo_Timer.c **** *                   A value of 1 to 3 will cause the interrupt
 678:.\Generated_Source\PSoC5/Echo_Timer.c **** *                   to delay by the same number of captures.
 679:.\Generated_Source\PSoC5/Echo_Timer.c **** *
 680:.\Generated_Source\PSoC5/Echo_Timer.c **** * Return:
 681:.\Generated_Source\PSoC5/Echo_Timer.c **** *  void
 682:.\Generated_Source\PSoC5/Echo_Timer.c **** *
 683:.\Generated_Source\PSoC5/Echo_Timer.c **** *******************************************************************************/
 684:.\Generated_Source\PSoC5/Echo_Timer.c **** void Echo_Timer_SetInterruptCount(uint8 interruptCount) 
 685:.\Generated_Source\PSoC5/Echo_Timer.c **** {
 562              		.loc 1 685 0
 563              		.cfi_startproc
 564              		@ args = 0, pretend = 0, frame = 8
 565              		@ frame_needed = 1, uses_anonymous_args = 0
 566              		@ link register save eliminated.
 567 0000 80B4     		push	{r7}
 568              	.LCFI33:
 569              		.cfi_def_cfa_offset 4
ARM GAS  D:\Users\BertoTech\TEMP\ccihxnoz.s 			page 23


 570              		.cfi_offset 7, -4
 571 0002 83B0     		sub	sp, sp, #12
 572              	.LCFI34:
 573              		.cfi_def_cfa_offset 16
 574 0004 00AF     		add	r7, sp, #0
 575              	.LCFI35:
 576              		.cfi_def_cfa_register 7
 577 0006 0346     		mov	r3, r0
 578 0008 FB71     		strb	r3, [r7, #7]
 686:.\Generated_Source\PSoC5/Echo_Timer.c ****     /* This must only set to two bits of the control register associated */
 687:.\Generated_Source\PSoC5/Echo_Timer.c ****     interruptCount &= Echo_Timer_CTRL_INTCNT_MASK;
 579              		.loc 1 687 0
 580 000a FB79     		ldrb	r3, [r7, #7]
 581 000c 03F00303 		and	r3, r3, #3
 582 0010 FB71     		strb	r3, [r7, #7]
 688:.\Generated_Source\PSoC5/Echo_Timer.c **** 
 689:.\Generated_Source\PSoC5/Echo_Timer.c ****     #if (!Echo_Timer_UDB_CONTROL_REG_REMOVED)
 690:.\Generated_Source\PSoC5/Echo_Timer.c ****         /* Clear the Current Setting */
 691:.\Generated_Source\PSoC5/Echo_Timer.c ****         Echo_Timer_CONTROL &= ((uint8)(~Echo_Timer_CTRL_INTCNT_MASK));
 583              		.loc 1 691 0
 584 0012 46F27953 		movw	r3, #25977
 585 0016 C4F20003 		movt	r3, 16384
 586 001a 46F27952 		movw	r2, #25977
 587 001e C4F20002 		movt	r2, 16384
 588 0022 1278     		ldrb	r2, [r2, #0]
 589 0024 D2B2     		uxtb	r2, r2
 590 0026 22F00302 		bic	r2, r2, #3
 591 002a D2B2     		uxtb	r2, r2
 592 002c 1A70     		strb	r2, [r3, #0]
 692:.\Generated_Source\PSoC5/Echo_Timer.c ****         /* Write The New Setting */
 693:.\Generated_Source\PSoC5/Echo_Timer.c ****         Echo_Timer_CONTROL |= interruptCount;
 593              		.loc 1 693 0
 594 002e 46F27953 		movw	r3, #25977
 595 0032 C4F20003 		movt	r3, 16384
 596 0036 46F27952 		movw	r2, #25977
 597 003a C4F20002 		movt	r2, 16384
 598 003e 1278     		ldrb	r2, [r2, #0]
 599 0040 D1B2     		uxtb	r1, r2
 600 0042 FA79     		ldrb	r2, [r7, #7]
 601 0044 0A43     		orrs	r2, r2, r1
 602 0046 D2B2     		uxtb	r2, r2
 603 0048 1A70     		strb	r2, [r3, #0]
 694:.\Generated_Source\PSoC5/Echo_Timer.c ****     #endif /* (!Echo_Timer_UDB_CONTROL_REG_REMOVED) */
 695:.\Generated_Source\PSoC5/Echo_Timer.c **** }
 604              		.loc 1 695 0
 605 004a 07F10C07 		add	r7, r7, #12
 606 004e BD46     		mov	sp, r7
 607 0050 80BC     		pop	{r7}
 608 0052 7047     		bx	lr
 609              		.cfi_endproc
 610              	.LFE14:
 611              		.size	Echo_Timer_SetInterruptCount, .-Echo_Timer_SetInterruptCount
 612              		.section	.text.Echo_Timer_ClearFIFO,"ax",%progbits
 613              		.align	2
 614              		.global	Echo_Timer_ClearFIFO
 615              		.thumb
 616              		.thumb_func
ARM GAS  D:\Users\BertoTech\TEMP\ccihxnoz.s 			page 24


 617              		.type	Echo_Timer_ClearFIFO, %function
 618              	Echo_Timer_ClearFIFO:
 619              	.LFB15:
 696:.\Generated_Source\PSoC5/Echo_Timer.c **** #endif /* Echo_Timer_InterruptOnCaptureCount */
 697:.\Generated_Source\PSoC5/Echo_Timer.c **** 
 698:.\Generated_Source\PSoC5/Echo_Timer.c **** 
 699:.\Generated_Source\PSoC5/Echo_Timer.c **** #if (Echo_Timer_UsingHWCaptureCounter)
 700:.\Generated_Source\PSoC5/Echo_Timer.c **** 
 701:.\Generated_Source\PSoC5/Echo_Timer.c **** 
 702:.\Generated_Source\PSoC5/Echo_Timer.c **** /*******************************************************************************
 703:.\Generated_Source\PSoC5/Echo_Timer.c **** * Function Name: Echo_Timer_SetCaptureCount
 704:.\Generated_Source\PSoC5/Echo_Timer.c **** ********************************************************************************
 705:.\Generated_Source\PSoC5/Echo_Timer.c **** *
 706:.\Generated_Source\PSoC5/Echo_Timer.c **** * Summary:
 707:.\Generated_Source\PSoC5/Echo_Timer.c **** *  This function sets the capture count
 708:.\Generated_Source\PSoC5/Echo_Timer.c **** *
 709:.\Generated_Source\PSoC5/Echo_Timer.c **** * Parameters:
 710:.\Generated_Source\PSoC5/Echo_Timer.c **** *  captureCount: A value between 2 and 127 inclusive is valid.  A value of 1
 711:.\Generated_Source\PSoC5/Echo_Timer.c **** *                to 127 will cause the interrupt to delay by the same number of
 712:.\Generated_Source\PSoC5/Echo_Timer.c **** *                captures.
 713:.\Generated_Source\PSoC5/Echo_Timer.c **** *
 714:.\Generated_Source\PSoC5/Echo_Timer.c **** * Return:
 715:.\Generated_Source\PSoC5/Echo_Timer.c **** *  void
 716:.\Generated_Source\PSoC5/Echo_Timer.c **** *
 717:.\Generated_Source\PSoC5/Echo_Timer.c **** *******************************************************************************/
 718:.\Generated_Source\PSoC5/Echo_Timer.c **** void Echo_Timer_SetCaptureCount(uint8 captureCount) 
 719:.\Generated_Source\PSoC5/Echo_Timer.c **** {
 720:.\Generated_Source\PSoC5/Echo_Timer.c ****     Echo_Timer_CAP_COUNT = captureCount;
 721:.\Generated_Source\PSoC5/Echo_Timer.c **** }
 722:.\Generated_Source\PSoC5/Echo_Timer.c **** 
 723:.\Generated_Source\PSoC5/Echo_Timer.c **** 
 724:.\Generated_Source\PSoC5/Echo_Timer.c **** /*******************************************************************************
 725:.\Generated_Source\PSoC5/Echo_Timer.c **** * Function Name: Echo_Timer_ReadCaptureCount
 726:.\Generated_Source\PSoC5/Echo_Timer.c **** ********************************************************************************
 727:.\Generated_Source\PSoC5/Echo_Timer.c **** *
 728:.\Generated_Source\PSoC5/Echo_Timer.c **** * Summary:
 729:.\Generated_Source\PSoC5/Echo_Timer.c **** *  This function reads the capture count setting
 730:.\Generated_Source\PSoC5/Echo_Timer.c **** *
 731:.\Generated_Source\PSoC5/Echo_Timer.c **** * Parameters:
 732:.\Generated_Source\PSoC5/Echo_Timer.c **** *  void
 733:.\Generated_Source\PSoC5/Echo_Timer.c **** *
 734:.\Generated_Source\PSoC5/Echo_Timer.c **** * Return:
 735:.\Generated_Source\PSoC5/Echo_Timer.c **** *  Returns the Capture Count Setting
 736:.\Generated_Source\PSoC5/Echo_Timer.c **** *
 737:.\Generated_Source\PSoC5/Echo_Timer.c **** *******************************************************************************/
 738:.\Generated_Source\PSoC5/Echo_Timer.c **** uint8 Echo_Timer_ReadCaptureCount(void) 
 739:.\Generated_Source\PSoC5/Echo_Timer.c **** {
 740:.\Generated_Source\PSoC5/Echo_Timer.c ****     return ((uint8)Echo_Timer_CAP_COUNT);
 741:.\Generated_Source\PSoC5/Echo_Timer.c **** }
 742:.\Generated_Source\PSoC5/Echo_Timer.c **** #endif /* Echo_Timer_UsingHWCaptureCounter */
 743:.\Generated_Source\PSoC5/Echo_Timer.c **** 
 744:.\Generated_Source\PSoC5/Echo_Timer.c **** 
 745:.\Generated_Source\PSoC5/Echo_Timer.c **** /*******************************************************************************
 746:.\Generated_Source\PSoC5/Echo_Timer.c **** * Function Name: Echo_Timer_ClearFIFO
 747:.\Generated_Source\PSoC5/Echo_Timer.c **** ********************************************************************************
 748:.\Generated_Source\PSoC5/Echo_Timer.c **** *
 749:.\Generated_Source\PSoC5/Echo_Timer.c **** * Summary:
ARM GAS  D:\Users\BertoTech\TEMP\ccihxnoz.s 			page 25


 750:.\Generated_Source\PSoC5/Echo_Timer.c **** *  This function clears all capture data from the capture FIFO
 751:.\Generated_Source\PSoC5/Echo_Timer.c **** *
 752:.\Generated_Source\PSoC5/Echo_Timer.c **** * Parameters:
 753:.\Generated_Source\PSoC5/Echo_Timer.c **** *  void
 754:.\Generated_Source\PSoC5/Echo_Timer.c **** *
 755:.\Generated_Source\PSoC5/Echo_Timer.c **** * Return:
 756:.\Generated_Source\PSoC5/Echo_Timer.c **** *  void
 757:.\Generated_Source\PSoC5/Echo_Timer.c **** *
 758:.\Generated_Source\PSoC5/Echo_Timer.c **** *******************************************************************************/
 759:.\Generated_Source\PSoC5/Echo_Timer.c **** void Echo_Timer_ClearFIFO(void) 
 760:.\Generated_Source\PSoC5/Echo_Timer.c **** {
 620              		.loc 1 760 0
 621              		.cfi_startproc
 622              		@ args = 0, pretend = 0, frame = 0
 623              		@ frame_needed = 1, uses_anonymous_args = 0
 624 0000 80B5     		push	{r7, lr}
 625              	.LCFI36:
 626              		.cfi_def_cfa_offset 8
 627              		.cfi_offset 7, -8
 628              		.cfi_offset 14, -4
 629 0002 00AF     		add	r7, sp, #0
 630              	.LCFI37:
 631              		.cfi_def_cfa_register 7
 761:.\Generated_Source\PSoC5/Echo_Timer.c ****     while(0u != (Echo_Timer_ReadStatusRegister() & Echo_Timer_STATUS_FIFONEMP))
 632              		.loc 1 761 0
 633 0004 01E0     		b	.L23
 634              	.L24:
 762:.\Generated_Source\PSoC5/Echo_Timer.c ****     {
 763:.\Generated_Source\PSoC5/Echo_Timer.c ****         (void)Echo_Timer_ReadCapture();
 635              		.loc 1 763 0
 636 0006 FFF7FEFF 		bl	Echo_Timer_ReadCapture
 637              	.L23:
 761:.\Generated_Source\PSoC5/Echo_Timer.c ****     while(0u != (Echo_Timer_ReadStatusRegister() & Echo_Timer_STATUS_FIFONEMP))
 638              		.loc 1 761 0 discriminator 1
 639 000a FFF7FEFF 		bl	Echo_Timer_ReadStatusRegister
 640 000e 0346     		mov	r3, r0
 641 0010 03F00803 		and	r3, r3, #8
 642 0014 002B     		cmp	r3, #0
 643 0016 F6D1     		bne	.L24
 764:.\Generated_Source\PSoC5/Echo_Timer.c ****     }
 765:.\Generated_Source\PSoC5/Echo_Timer.c **** }
 644              		.loc 1 765 0
 645 0018 80BD     		pop	{r7, pc}
 646              		.cfi_endproc
 647              	.LFE15:
 648              		.size	Echo_Timer_ClearFIFO, .-Echo_Timer_ClearFIFO
 649 001a 00BF     		.text
 650              	.Letext0:
 651              		.file 2 ".\\Generated_Source\\PSoC5\\cytypes.h"