ARM GAS  D:\Users\BertoTech\TEMP\ccNGJ7vI.s 			page 1


   1              		.syntax unified
   2              		.cpu cortex-m3
   3              		.fpu softvfp
   4              		.eabi_attribute 20, 1
   5              		.eabi_attribute 21, 1
   6              		.eabi_attribute 23, 3
   7              		.eabi_attribute 24, 1
   8              		.eabi_attribute 25, 1
   9              		.eabi_attribute 26, 1
  10              		.eabi_attribute 30, 6
  11              		.eabi_attribute 34, 1
  12              		.eabi_attribute 18, 4
  13              		.thumb
  14              		.file	"end_echo_IRR.c"
  15              		.text
  16              	.Ltext0:
  17              		.cfi_sections	.debug_frame
  18              		.section	.text.end_echo_IRR_Start,"ax",%progbits
  19              		.align	2
  20              		.global	end_echo_IRR_Start
  21              		.thumb
  22              		.thumb_func
  23              		.type	end_echo_IRR_Start, %function
  24              	end_echo_IRR_Start:
  25              	.LFB0:
  26              		.file 1 ".\\Generated_Source\\PSoC5\\end_echo_IRR.c"
   1:.\Generated_Source\PSoC5/end_echo_IRR.c **** /*******************************************************************************
   2:.\Generated_Source\PSoC5/end_echo_IRR.c **** * File Name: end_echo_IRR.c  
   3:.\Generated_Source\PSoC5/end_echo_IRR.c **** * Version 1.70
   4:.\Generated_Source\PSoC5/end_echo_IRR.c **** *
   5:.\Generated_Source\PSoC5/end_echo_IRR.c **** *  Description:
   6:.\Generated_Source\PSoC5/end_echo_IRR.c **** *   API for controlling the state of an interrupt.
   7:.\Generated_Source\PSoC5/end_echo_IRR.c **** *
   8:.\Generated_Source\PSoC5/end_echo_IRR.c **** *
   9:.\Generated_Source\PSoC5/end_echo_IRR.c **** *  Note:
  10:.\Generated_Source\PSoC5/end_echo_IRR.c **** *
  11:.\Generated_Source\PSoC5/end_echo_IRR.c **** ********************************************************************************
  12:.\Generated_Source\PSoC5/end_echo_IRR.c **** * Copyright 2008-2012, Cypress Semiconductor Corporation.  All rights reserved.
  13:.\Generated_Source\PSoC5/end_echo_IRR.c **** * You may use this file only in accordance with the license, terms, conditions, 
  14:.\Generated_Source\PSoC5/end_echo_IRR.c **** * disclaimers, and limitations in the end user license agreement accompanying 
  15:.\Generated_Source\PSoC5/end_echo_IRR.c **** * the software package with which this file was provided.
  16:.\Generated_Source\PSoC5/end_echo_IRR.c **** *******************************************************************************/
  17:.\Generated_Source\PSoC5/end_echo_IRR.c **** 
  18:.\Generated_Source\PSoC5/end_echo_IRR.c **** 
  19:.\Generated_Source\PSoC5/end_echo_IRR.c **** #include <cydevice_trm.h>
  20:.\Generated_Source\PSoC5/end_echo_IRR.c **** #include <CyLib.h>
  21:.\Generated_Source\PSoC5/end_echo_IRR.c **** #include <end_echo_IRR.h>
  22:.\Generated_Source\PSoC5/end_echo_IRR.c **** 
  23:.\Generated_Source\PSoC5/end_echo_IRR.c **** #if !defined(end_echo_IRR__REMOVED) /* Check for removal by optimization */
  24:.\Generated_Source\PSoC5/end_echo_IRR.c **** 
  25:.\Generated_Source\PSoC5/end_echo_IRR.c **** /*******************************************************************************
  26:.\Generated_Source\PSoC5/end_echo_IRR.c **** *  Place your includes, defines and code here 
  27:.\Generated_Source\PSoC5/end_echo_IRR.c **** ********************************************************************************/
  28:.\Generated_Source\PSoC5/end_echo_IRR.c **** /* `#START end_echo_IRR_intc` */
  29:.\Generated_Source\PSoC5/end_echo_IRR.c **** 
  30:.\Generated_Source\PSoC5/end_echo_IRR.c **** /* `#END` */
  31:.\Generated_Source\PSoC5/end_echo_IRR.c **** 
ARM GAS  D:\Users\BertoTech\TEMP\ccNGJ7vI.s 			page 2


  32:.\Generated_Source\PSoC5/end_echo_IRR.c **** #ifndef CYINT_IRQ_BASE
  33:.\Generated_Source\PSoC5/end_echo_IRR.c **** #define CYINT_IRQ_BASE      16
  34:.\Generated_Source\PSoC5/end_echo_IRR.c **** #endif /* CYINT_IRQ_BASE */
  35:.\Generated_Source\PSoC5/end_echo_IRR.c **** #ifndef CYINT_VECT_TABLE
  36:.\Generated_Source\PSoC5/end_echo_IRR.c **** #define CYINT_VECT_TABLE    ((cyisraddress **) CYREG_NVIC_VECT_OFFSET)
  37:.\Generated_Source\PSoC5/end_echo_IRR.c **** #endif /* CYINT_VECT_TABLE */
  38:.\Generated_Source\PSoC5/end_echo_IRR.c **** 
  39:.\Generated_Source\PSoC5/end_echo_IRR.c **** /* Declared in startup, used to set unused interrupts to. */
  40:.\Generated_Source\PSoC5/end_echo_IRR.c **** CY_ISR_PROTO(IntDefaultHandler);
  41:.\Generated_Source\PSoC5/end_echo_IRR.c **** 
  42:.\Generated_Source\PSoC5/end_echo_IRR.c **** 
  43:.\Generated_Source\PSoC5/end_echo_IRR.c **** /*******************************************************************************
  44:.\Generated_Source\PSoC5/end_echo_IRR.c **** * Function Name: end_echo_IRR_Start
  45:.\Generated_Source\PSoC5/end_echo_IRR.c **** ********************************************************************************
  46:.\Generated_Source\PSoC5/end_echo_IRR.c **** *
  47:.\Generated_Source\PSoC5/end_echo_IRR.c **** * Summary:
  48:.\Generated_Source\PSoC5/end_echo_IRR.c **** *  Set up the interrupt and enable it.
  49:.\Generated_Source\PSoC5/end_echo_IRR.c **** *
  50:.\Generated_Source\PSoC5/end_echo_IRR.c **** * Parameters:  
  51:.\Generated_Source\PSoC5/end_echo_IRR.c **** *   None
  52:.\Generated_Source\PSoC5/end_echo_IRR.c **** *
  53:.\Generated_Source\PSoC5/end_echo_IRR.c **** * Return:
  54:.\Generated_Source\PSoC5/end_echo_IRR.c **** *   None
  55:.\Generated_Source\PSoC5/end_echo_IRR.c **** *
  56:.\Generated_Source\PSoC5/end_echo_IRR.c **** *******************************************************************************/
  57:.\Generated_Source\PSoC5/end_echo_IRR.c **** void end_echo_IRR_Start(void)
  58:.\Generated_Source\PSoC5/end_echo_IRR.c **** {
  27              		.loc 1 58 0
  28              		.cfi_startproc
  29              		@ args = 0, pretend = 0, frame = 0
  30              		@ frame_needed = 1, uses_anonymous_args = 0
  31 0000 80B5     		push	{r7, lr}
  32              	.LCFI0:
  33              		.cfi_def_cfa_offset 8
  34              		.cfi_offset 7, -8
  35              		.cfi_offset 14, -4
  36 0002 00AF     		add	r7, sp, #0
  37              	.LCFI1:
  38              		.cfi_def_cfa_register 7
  59:.\Generated_Source\PSoC5/end_echo_IRR.c ****     /* For all we know the interrupt is active. */
  60:.\Generated_Source\PSoC5/end_echo_IRR.c ****     end_echo_IRR_Disable();
  39              		.loc 1 60 0
  40 0004 FFF7FEFF 		bl	end_echo_IRR_Disable
  61:.\Generated_Source\PSoC5/end_echo_IRR.c **** 
  62:.\Generated_Source\PSoC5/end_echo_IRR.c ****     /* Set the ISR to point to the end_echo_IRR Interrupt. */
  63:.\Generated_Source\PSoC5/end_echo_IRR.c ****     end_echo_IRR_SetVector(&end_echo_IRR_Interrupt);
  41              		.loc 1 63 0
  42 0008 40F20000 		movw	r0, #:lower16:end_echo_IRR_Interrupt
  43 000c C0F20000 		movt	r0, #:upper16:end_echo_IRR_Interrupt
  44 0010 FFF7FEFF 		bl	end_echo_IRR_SetVector
  64:.\Generated_Source\PSoC5/end_echo_IRR.c **** 
  65:.\Generated_Source\PSoC5/end_echo_IRR.c ****     /* Set the priority. */
  66:.\Generated_Source\PSoC5/end_echo_IRR.c ****     end_echo_IRR_SetPriority((uint8)end_echo_IRR_INTC_PRIOR_NUMBER);
  45              		.loc 1 66 0
  46 0014 4FF00700 		mov	r0, #7
  47 0018 FFF7FEFF 		bl	end_echo_IRR_SetPriority
  67:.\Generated_Source\PSoC5/end_echo_IRR.c **** 
ARM GAS  D:\Users\BertoTech\TEMP\ccNGJ7vI.s 			page 3


  68:.\Generated_Source\PSoC5/end_echo_IRR.c ****     /* Enable it. */
  69:.\Generated_Source\PSoC5/end_echo_IRR.c ****     end_echo_IRR_Enable();
  48              		.loc 1 69 0
  49 001c FFF7FEFF 		bl	end_echo_IRR_Enable
  70:.\Generated_Source\PSoC5/end_echo_IRR.c **** }
  50              		.loc 1 70 0
  51 0020 80BD     		pop	{r7, pc}
  52              		.cfi_endproc
  53              	.LFE0:
  54              		.size	end_echo_IRR_Start, .-end_echo_IRR_Start
  55 0022 00BF     		.section	.text.end_echo_IRR_StartEx,"ax",%progbits
  56              		.align	2
  57              		.global	end_echo_IRR_StartEx
  58              		.thumb
  59              		.thumb_func
  60              		.type	end_echo_IRR_StartEx, %function
  61              	end_echo_IRR_StartEx:
  62              	.LFB1:
  71:.\Generated_Source\PSoC5/end_echo_IRR.c **** 
  72:.\Generated_Source\PSoC5/end_echo_IRR.c **** 
  73:.\Generated_Source\PSoC5/end_echo_IRR.c **** /*******************************************************************************
  74:.\Generated_Source\PSoC5/end_echo_IRR.c **** * Function Name: end_echo_IRR_StartEx
  75:.\Generated_Source\PSoC5/end_echo_IRR.c **** ********************************************************************************
  76:.\Generated_Source\PSoC5/end_echo_IRR.c **** *
  77:.\Generated_Source\PSoC5/end_echo_IRR.c **** * Summary:
  78:.\Generated_Source\PSoC5/end_echo_IRR.c **** *  Set up the interrupt and enable it.
  79:.\Generated_Source\PSoC5/end_echo_IRR.c **** *
  80:.\Generated_Source\PSoC5/end_echo_IRR.c **** * Parameters:  
  81:.\Generated_Source\PSoC5/end_echo_IRR.c **** *   address: Address of the ISR to set in the interrupt vector table.
  82:.\Generated_Source\PSoC5/end_echo_IRR.c **** *
  83:.\Generated_Source\PSoC5/end_echo_IRR.c **** * Return:
  84:.\Generated_Source\PSoC5/end_echo_IRR.c **** *   None
  85:.\Generated_Source\PSoC5/end_echo_IRR.c **** *
  86:.\Generated_Source\PSoC5/end_echo_IRR.c **** *******************************************************************************/
  87:.\Generated_Source\PSoC5/end_echo_IRR.c **** void end_echo_IRR_StartEx(cyisraddress address)
  88:.\Generated_Source\PSoC5/end_echo_IRR.c **** {
  63              		.loc 1 88 0
  64              		.cfi_startproc
  65              		@ args = 0, pretend = 0, frame = 8
  66              		@ frame_needed = 1, uses_anonymous_args = 0
  67 0000 80B5     		push	{r7, lr}
  68              	.LCFI2:
  69              		.cfi_def_cfa_offset 8
  70              		.cfi_offset 7, -8
  71              		.cfi_offset 14, -4
  72 0002 82B0     		sub	sp, sp, #8
  73              	.LCFI3:
  74              		.cfi_def_cfa_offset 16
  75 0004 00AF     		add	r7, sp, #0
  76              	.LCFI4:
  77              		.cfi_def_cfa_register 7
  78 0006 7860     		str	r0, [r7, #4]
  89:.\Generated_Source\PSoC5/end_echo_IRR.c ****     /* For all we know the interrupt is active. */
  90:.\Generated_Source\PSoC5/end_echo_IRR.c ****     end_echo_IRR_Disable();
  79              		.loc 1 90 0
  80 0008 FFF7FEFF 		bl	end_echo_IRR_Disable
  91:.\Generated_Source\PSoC5/end_echo_IRR.c **** 
ARM GAS  D:\Users\BertoTech\TEMP\ccNGJ7vI.s 			page 4


  92:.\Generated_Source\PSoC5/end_echo_IRR.c ****     /* Set the ISR to point to the end_echo_IRR Interrupt. */
  93:.\Generated_Source\PSoC5/end_echo_IRR.c ****     end_echo_IRR_SetVector(address);
  81              		.loc 1 93 0
  82 000c 7868     		ldr	r0, [r7, #4]
  83 000e FFF7FEFF 		bl	end_echo_IRR_SetVector
  94:.\Generated_Source\PSoC5/end_echo_IRR.c **** 
  95:.\Generated_Source\PSoC5/end_echo_IRR.c ****     /* Set the priority. */
  96:.\Generated_Source\PSoC5/end_echo_IRR.c ****     end_echo_IRR_SetPriority((uint8)end_echo_IRR_INTC_PRIOR_NUMBER);
  84              		.loc 1 96 0
  85 0012 4FF00700 		mov	r0, #7
  86 0016 FFF7FEFF 		bl	end_echo_IRR_SetPriority
  97:.\Generated_Source\PSoC5/end_echo_IRR.c **** 
  98:.\Generated_Source\PSoC5/end_echo_IRR.c ****     /* Enable it. */
  99:.\Generated_Source\PSoC5/end_echo_IRR.c ****     end_echo_IRR_Enable();
  87              		.loc 1 99 0
  88 001a FFF7FEFF 		bl	end_echo_IRR_Enable
 100:.\Generated_Source\PSoC5/end_echo_IRR.c **** }
  89              		.loc 1 100 0
  90 001e 07F10807 		add	r7, r7, #8
  91 0022 BD46     		mov	sp, r7
  92 0024 80BD     		pop	{r7, pc}
  93              		.cfi_endproc
  94              	.LFE1:
  95              		.size	end_echo_IRR_StartEx, .-end_echo_IRR_StartEx
  96 0026 00BF     		.section	.text.end_echo_IRR_Stop,"ax",%progbits
  97              		.align	2
  98              		.global	end_echo_IRR_Stop
  99              		.thumb
 100              		.thumb_func
 101              		.type	end_echo_IRR_Stop, %function
 102              	end_echo_IRR_Stop:
 103              	.LFB2:
 101:.\Generated_Source\PSoC5/end_echo_IRR.c **** 
 102:.\Generated_Source\PSoC5/end_echo_IRR.c **** 
 103:.\Generated_Source\PSoC5/end_echo_IRR.c **** /*******************************************************************************
 104:.\Generated_Source\PSoC5/end_echo_IRR.c **** * Function Name: end_echo_IRR_Stop
 105:.\Generated_Source\PSoC5/end_echo_IRR.c **** ********************************************************************************
 106:.\Generated_Source\PSoC5/end_echo_IRR.c **** *
 107:.\Generated_Source\PSoC5/end_echo_IRR.c **** * Summary:
 108:.\Generated_Source\PSoC5/end_echo_IRR.c **** *   Disables and removes the interrupt.
 109:.\Generated_Source\PSoC5/end_echo_IRR.c **** *
 110:.\Generated_Source\PSoC5/end_echo_IRR.c **** * Parameters:  
 111:.\Generated_Source\PSoC5/end_echo_IRR.c **** *
 112:.\Generated_Source\PSoC5/end_echo_IRR.c **** * Return:
 113:.\Generated_Source\PSoC5/end_echo_IRR.c **** *   None
 114:.\Generated_Source\PSoC5/end_echo_IRR.c **** *
 115:.\Generated_Source\PSoC5/end_echo_IRR.c **** *******************************************************************************/
 116:.\Generated_Source\PSoC5/end_echo_IRR.c **** void end_echo_IRR_Stop(void)
 117:.\Generated_Source\PSoC5/end_echo_IRR.c **** {
 104              		.loc 1 117 0
 105              		.cfi_startproc
 106              		@ args = 0, pretend = 0, frame = 0
 107              		@ frame_needed = 1, uses_anonymous_args = 0
 108 0000 80B5     		push	{r7, lr}
 109              	.LCFI5:
 110              		.cfi_def_cfa_offset 8
 111              		.cfi_offset 7, -8
ARM GAS  D:\Users\BertoTech\TEMP\ccNGJ7vI.s 			page 5


 112              		.cfi_offset 14, -4
 113 0002 00AF     		add	r7, sp, #0
 114              	.LCFI6:
 115              		.cfi_def_cfa_register 7
 118:.\Generated_Source\PSoC5/end_echo_IRR.c ****     /* Disable this interrupt. */
 119:.\Generated_Source\PSoC5/end_echo_IRR.c ****     end_echo_IRR_Disable();
 116              		.loc 1 119 0
 117 0004 FFF7FEFF 		bl	end_echo_IRR_Disable
 120:.\Generated_Source\PSoC5/end_echo_IRR.c **** 
 121:.\Generated_Source\PSoC5/end_echo_IRR.c ****     /* Set the ISR to point to the passive one. */
 122:.\Generated_Source\PSoC5/end_echo_IRR.c ****     end_echo_IRR_SetVector(&IntDefaultHandler);
 118              		.loc 1 122 0
 119 0008 40F20000 		movw	r0, #:lower16:IntDefaultHandler
 120 000c C0F20000 		movt	r0, #:upper16:IntDefaultHandler
 121 0010 FFF7FEFF 		bl	end_echo_IRR_SetVector
 123:.\Generated_Source\PSoC5/end_echo_IRR.c **** }
 122              		.loc 1 123 0
 123 0014 80BD     		pop	{r7, pc}
 124              		.cfi_endproc
 125              	.LFE2:
 126              		.size	end_echo_IRR_Stop, .-end_echo_IRR_Stop
 127 0016 00BF     		.section	.text.end_echo_IRR_SetVector,"ax",%progbits
 128              		.align	2
 129              		.global	end_echo_IRR_SetVector
 130              		.thumb
 131              		.thumb_func
 132              		.type	end_echo_IRR_SetVector, %function
 133              	end_echo_IRR_SetVector:
 134              	.LFB3:
 124:.\Generated_Source\PSoC5/end_echo_IRR.c **** 
 125:.\Generated_Source\PSoC5/end_echo_IRR.c **** 
 126:.\Generated_Source\PSoC5/end_echo_IRR.c **** /*******************************************************************************
 127:.\Generated_Source\PSoC5/end_echo_IRR.c **** * Function Name: end_echo_IRR_Interrupt
 128:.\Generated_Source\PSoC5/end_echo_IRR.c **** ********************************************************************************
 129:.\Generated_Source\PSoC5/end_echo_IRR.c **** *
 130:.\Generated_Source\PSoC5/end_echo_IRR.c **** * Summary:
 131:.\Generated_Source\PSoC5/end_echo_IRR.c **** *   The default Interrupt Service Routine for end_echo_IRR.
 132:.\Generated_Source\PSoC5/end_echo_IRR.c **** *
 133:.\Generated_Source\PSoC5/end_echo_IRR.c **** *   Add custom code between the coments to keep the next version of this file
 134:.\Generated_Source\PSoC5/end_echo_IRR.c **** *   from over writting your code.
 135:.\Generated_Source\PSoC5/end_echo_IRR.c **** *
 136:.\Generated_Source\PSoC5/end_echo_IRR.c **** * Parameters:  
 137:.\Generated_Source\PSoC5/end_echo_IRR.c **** *
 138:.\Generated_Source\PSoC5/end_echo_IRR.c **** * Return:
 139:.\Generated_Source\PSoC5/end_echo_IRR.c **** *   None
 140:.\Generated_Source\PSoC5/end_echo_IRR.c **** *
 141:.\Generated_Source\PSoC5/end_echo_IRR.c **** *******************************************************************************/
 142:.\Generated_Source\PSoC5/end_echo_IRR.c **** 
 143:.\Generated_Source\PSoC5/end_echo_IRR.c **** 
 144:.\Generated_Source\PSoC5/end_echo_IRR.c **** /*******************************************************************************
 145:.\Generated_Source\PSoC5/end_echo_IRR.c **** * Function Name: end_echo_IRR_SetVector
 146:.\Generated_Source\PSoC5/end_echo_IRR.c **** ********************************************************************************
 147:.\Generated_Source\PSoC5/end_echo_IRR.c **** *
 148:.\Generated_Source\PSoC5/end_echo_IRR.c **** * Summary:
 149:.\Generated_Source\PSoC5/end_echo_IRR.c **** *   Change the ISR vector for the Interrupt. Note calling end_echo_IRR_Start
 150:.\Generated_Source\PSoC5/end_echo_IRR.c **** *   will override any effect this method would have had. To set the vector 
 151:.\Generated_Source\PSoC5/end_echo_IRR.c **** *   before the component has been started use end_echo_IRR_StartEx instead.
ARM GAS  D:\Users\BertoTech\TEMP\ccNGJ7vI.s 			page 6


 152:.\Generated_Source\PSoC5/end_echo_IRR.c **** *
 153:.\Generated_Source\PSoC5/end_echo_IRR.c **** * Parameters:
 154:.\Generated_Source\PSoC5/end_echo_IRR.c **** *   address: Address of the ISR to set in the interrupt vector table.
 155:.\Generated_Source\PSoC5/end_echo_IRR.c **** *
 156:.\Generated_Source\PSoC5/end_echo_IRR.c **** * Return:
 157:.\Generated_Source\PSoC5/end_echo_IRR.c **** *   None
 158:.\Generated_Source\PSoC5/end_echo_IRR.c **** *
 159:.\Generated_Source\PSoC5/end_echo_IRR.c **** *******************************************************************************/
 160:.\Generated_Source\PSoC5/end_echo_IRR.c **** void end_echo_IRR_SetVector(cyisraddress address)
 161:.\Generated_Source\PSoC5/end_echo_IRR.c **** {
 135              		.loc 1 161 0
 136              		.cfi_startproc
 137              		@ args = 0, pretend = 0, frame = 16
 138              		@ frame_needed = 1, uses_anonymous_args = 0
 139              		@ link register save eliminated.
 140 0000 80B4     		push	{r7}
 141              	.LCFI7:
 142              		.cfi_def_cfa_offset 4
 143              		.cfi_offset 7, -4
 144 0002 85B0     		sub	sp, sp, #20
 145              	.LCFI8:
 146              		.cfi_def_cfa_offset 24
 147 0004 00AF     		add	r7, sp, #0
 148              	.LCFI9:
 149              		.cfi_def_cfa_register 7
 150 0006 7860     		str	r0, [r7, #4]
 162:.\Generated_Source\PSoC5/end_echo_IRR.c ****     cyisraddress * ramVectorTable;
 163:.\Generated_Source\PSoC5/end_echo_IRR.c **** 
 164:.\Generated_Source\PSoC5/end_echo_IRR.c ****     ramVectorTable = (cyisraddress *) *CYINT_VECT_TABLE;
 151              		.loc 1 164 0
 152 0008 4EF60853 		movw	r3, #60680
 153 000c CEF20003 		movt	r3, 57344
 154 0010 1B68     		ldr	r3, [r3, #0]
 155 0012 FB60     		str	r3, [r7, #12]
 165:.\Generated_Source\PSoC5/end_echo_IRR.c **** 
 166:.\Generated_Source\PSoC5/end_echo_IRR.c ****     ramVectorTable[CYINT_IRQ_BASE + (uint32)end_echo_IRR__INTC_NUMBER] = address;
 156              		.loc 1 166 0
 157 0014 FB68     		ldr	r3, [r7, #12]
 158 0016 03F14003 		add	r3, r3, #64
 159 001a 7A68     		ldr	r2, [r7, #4]
 160 001c 1A60     		str	r2, [r3, #0]
 167:.\Generated_Source\PSoC5/end_echo_IRR.c **** }
 161              		.loc 1 167 0
 162 001e 07F11407 		add	r7, r7, #20
 163 0022 BD46     		mov	sp, r7
 164 0024 80BC     		pop	{r7}
 165 0026 7047     		bx	lr
 166              		.cfi_endproc
 167              	.LFE3:
 168              		.size	end_echo_IRR_SetVector, .-end_echo_IRR_SetVector
 169              		.section	.text.end_echo_IRR_GetVector,"ax",%progbits
 170              		.align	2
 171              		.global	end_echo_IRR_GetVector
 172              		.thumb
 173              		.thumb_func
 174              		.type	end_echo_IRR_GetVector, %function
 175              	end_echo_IRR_GetVector:
ARM GAS  D:\Users\BertoTech\TEMP\ccNGJ7vI.s 			page 7


 176              	.LFB4:
 168:.\Generated_Source\PSoC5/end_echo_IRR.c **** 
 169:.\Generated_Source\PSoC5/end_echo_IRR.c **** 
 170:.\Generated_Source\PSoC5/end_echo_IRR.c **** /*******************************************************************************
 171:.\Generated_Source\PSoC5/end_echo_IRR.c **** * Function Name: end_echo_IRR_GetVector
 172:.\Generated_Source\PSoC5/end_echo_IRR.c **** ********************************************************************************
 173:.\Generated_Source\PSoC5/end_echo_IRR.c **** *
 174:.\Generated_Source\PSoC5/end_echo_IRR.c **** * Summary:
 175:.\Generated_Source\PSoC5/end_echo_IRR.c **** *   Gets the "address" of the current ISR vector for the Interrupt.
 176:.\Generated_Source\PSoC5/end_echo_IRR.c **** *
 177:.\Generated_Source\PSoC5/end_echo_IRR.c **** * Parameters:
 178:.\Generated_Source\PSoC5/end_echo_IRR.c **** *   None
 179:.\Generated_Source\PSoC5/end_echo_IRR.c **** *
 180:.\Generated_Source\PSoC5/end_echo_IRR.c **** * Return:
 181:.\Generated_Source\PSoC5/end_echo_IRR.c **** *   Address of the ISR in the interrupt vector table.
 182:.\Generated_Source\PSoC5/end_echo_IRR.c **** *
 183:.\Generated_Source\PSoC5/end_echo_IRR.c **** *******************************************************************************/
 184:.\Generated_Source\PSoC5/end_echo_IRR.c **** cyisraddress end_echo_IRR_GetVector(void)
 185:.\Generated_Source\PSoC5/end_echo_IRR.c **** {
 177              		.loc 1 185 0
 178              		.cfi_startproc
 179              		@ args = 0, pretend = 0, frame = 8
 180              		@ frame_needed = 1, uses_anonymous_args = 0
 181              		@ link register save eliminated.
 182 0000 80B4     		push	{r7}
 183              	.LCFI10:
 184              		.cfi_def_cfa_offset 4
 185              		.cfi_offset 7, -4
 186 0002 83B0     		sub	sp, sp, #12
 187              	.LCFI11:
 188              		.cfi_def_cfa_offset 16
 189 0004 00AF     		add	r7, sp, #0
 190              	.LCFI12:
 191              		.cfi_def_cfa_register 7
 186:.\Generated_Source\PSoC5/end_echo_IRR.c ****     cyisraddress * ramVectorTable;
 187:.\Generated_Source\PSoC5/end_echo_IRR.c **** 
 188:.\Generated_Source\PSoC5/end_echo_IRR.c ****     ramVectorTable = (cyisraddress *) *CYINT_VECT_TABLE;
 192              		.loc 1 188 0
 193 0006 4EF60853 		movw	r3, #60680
 194 000a CEF20003 		movt	r3, 57344
 195 000e 1B68     		ldr	r3, [r3, #0]
 196 0010 7B60     		str	r3, [r7, #4]
 189:.\Generated_Source\PSoC5/end_echo_IRR.c **** 
 190:.\Generated_Source\PSoC5/end_echo_IRR.c ****     return ramVectorTable[CYINT_IRQ_BASE + (uint32)end_echo_IRR__INTC_NUMBER];
 197              		.loc 1 190 0
 198 0012 7B68     		ldr	r3, [r7, #4]
 199 0014 1B6C     		ldr	r3, [r3, #64]
 191:.\Generated_Source\PSoC5/end_echo_IRR.c **** }
 200              		.loc 1 191 0
 201 0016 1846     		mov	r0, r3
 202 0018 07F10C07 		add	r7, r7, #12
 203 001c BD46     		mov	sp, r7
 204 001e 80BC     		pop	{r7}
 205 0020 7047     		bx	lr
 206              		.cfi_endproc
 207              	.LFE4:
 208              		.size	end_echo_IRR_GetVector, .-end_echo_IRR_GetVector
ARM GAS  D:\Users\BertoTech\TEMP\ccNGJ7vI.s 			page 8


 209 0022 00BF     		.section	.text.end_echo_IRR_SetPriority,"ax",%progbits
 210              		.align	2
 211              		.global	end_echo_IRR_SetPriority
 212              		.thumb
 213              		.thumb_func
 214              		.type	end_echo_IRR_SetPriority, %function
 215              	end_echo_IRR_SetPriority:
 216              	.LFB5:
 192:.\Generated_Source\PSoC5/end_echo_IRR.c **** 
 193:.\Generated_Source\PSoC5/end_echo_IRR.c **** 
 194:.\Generated_Source\PSoC5/end_echo_IRR.c **** /*******************************************************************************
 195:.\Generated_Source\PSoC5/end_echo_IRR.c **** * Function Name: end_echo_IRR_SetPriority
 196:.\Generated_Source\PSoC5/end_echo_IRR.c **** ********************************************************************************
 197:.\Generated_Source\PSoC5/end_echo_IRR.c **** *
 198:.\Generated_Source\PSoC5/end_echo_IRR.c **** * Summary:
 199:.\Generated_Source\PSoC5/end_echo_IRR.c **** *   Sets the Priority of the Interrupt. Note calling end_echo_IRR_Start
 200:.\Generated_Source\PSoC5/end_echo_IRR.c **** *   or end_echo_IRR_StartEx will override any effect this method 
 201:.\Generated_Source\PSoC5/end_echo_IRR.c **** *   would have had. This method should only be called after 
 202:.\Generated_Source\PSoC5/end_echo_IRR.c **** *   end_echo_IRR_Start or end_echo_IRR_StartEx has been called. To set 
 203:.\Generated_Source\PSoC5/end_echo_IRR.c **** *   the initial priority for the component use the cydwr file in the tool.
 204:.\Generated_Source\PSoC5/end_echo_IRR.c **** *
 205:.\Generated_Source\PSoC5/end_echo_IRR.c **** * Parameters:
 206:.\Generated_Source\PSoC5/end_echo_IRR.c **** *   priority: Priority of the interrupt. 0 - 7, 0 being the highest.
 207:.\Generated_Source\PSoC5/end_echo_IRR.c **** *
 208:.\Generated_Source\PSoC5/end_echo_IRR.c **** * Return:
 209:.\Generated_Source\PSoC5/end_echo_IRR.c **** *   None
 210:.\Generated_Source\PSoC5/end_echo_IRR.c **** *
 211:.\Generated_Source\PSoC5/end_echo_IRR.c **** *******************************************************************************/
 212:.\Generated_Source\PSoC5/end_echo_IRR.c **** void end_echo_IRR_SetPriority(uint8 priority)
 213:.\Generated_Source\PSoC5/end_echo_IRR.c **** {
 217              		.loc 1 213 0
 218              		.cfi_startproc
 219              		@ args = 0, pretend = 0, frame = 8
 220              		@ frame_needed = 1, uses_anonymous_args = 0
 221              		@ link register save eliminated.
 222 0000 80B4     		push	{r7}
 223              	.LCFI13:
 224              		.cfi_def_cfa_offset 4
 225              		.cfi_offset 7, -4
 226 0002 83B0     		sub	sp, sp, #12
 227              	.LCFI14:
 228              		.cfi_def_cfa_offset 16
 229 0004 00AF     		add	r7, sp, #0
 230              	.LCFI15:
 231              		.cfi_def_cfa_register 7
 232 0006 0346     		mov	r3, r0
 233 0008 FB71     		strb	r3, [r7, #7]
 214:.\Generated_Source\PSoC5/end_echo_IRR.c ****     *end_echo_IRR_INTC_PRIOR = priority << 5;
 234              		.loc 1 214 0
 235 000a 4FF46443 		mov	r3, #58368
 236 000e CEF20003 		movt	r3, 57344
 237 0012 FA79     		ldrb	r2, [r7, #7]
 238 0014 4FEA4212 		lsl	r2, r2, #5
 239 0018 D2B2     		uxtb	r2, r2
 240 001a 1A70     		strb	r2, [r3, #0]
 215:.\Generated_Source\PSoC5/end_echo_IRR.c **** }
 241              		.loc 1 215 0
ARM GAS  D:\Users\BertoTech\TEMP\ccNGJ7vI.s 			page 9


 242 001c 07F10C07 		add	r7, r7, #12
 243 0020 BD46     		mov	sp, r7
 244 0022 80BC     		pop	{r7}
 245 0024 7047     		bx	lr
 246              		.cfi_endproc
 247              	.LFE5:
 248              		.size	end_echo_IRR_SetPriority, .-end_echo_IRR_SetPriority
 249 0026 00BF     		.section	.text.end_echo_IRR_GetPriority,"ax",%progbits
 250              		.align	2
 251              		.global	end_echo_IRR_GetPriority
 252              		.thumb
 253              		.thumb_func
 254              		.type	end_echo_IRR_GetPriority, %function
 255              	end_echo_IRR_GetPriority:
 256              	.LFB6:
 216:.\Generated_Source\PSoC5/end_echo_IRR.c **** 
 217:.\Generated_Source\PSoC5/end_echo_IRR.c **** 
 218:.\Generated_Source\PSoC5/end_echo_IRR.c **** /*******************************************************************************
 219:.\Generated_Source\PSoC5/end_echo_IRR.c **** * Function Name: end_echo_IRR_GetPriority
 220:.\Generated_Source\PSoC5/end_echo_IRR.c **** ********************************************************************************
 221:.\Generated_Source\PSoC5/end_echo_IRR.c **** *
 222:.\Generated_Source\PSoC5/end_echo_IRR.c **** * Summary:
 223:.\Generated_Source\PSoC5/end_echo_IRR.c **** *   Gets the Priority of the Interrupt.
 224:.\Generated_Source\PSoC5/end_echo_IRR.c **** *
 225:.\Generated_Source\PSoC5/end_echo_IRR.c **** * Parameters:
 226:.\Generated_Source\PSoC5/end_echo_IRR.c **** *   None
 227:.\Generated_Source\PSoC5/end_echo_IRR.c **** *
 228:.\Generated_Source\PSoC5/end_echo_IRR.c **** * Return:
 229:.\Generated_Source\PSoC5/end_echo_IRR.c **** *   Priority of the interrupt. 0 - 7, 0 being the highest.
 230:.\Generated_Source\PSoC5/end_echo_IRR.c **** *
 231:.\Generated_Source\PSoC5/end_echo_IRR.c **** *******************************************************************************/
 232:.\Generated_Source\PSoC5/end_echo_IRR.c **** uint8 end_echo_IRR_GetPriority(void)
 233:.\Generated_Source\PSoC5/end_echo_IRR.c **** {
 257              		.loc 1 233 0
 258              		.cfi_startproc
 259              		@ args = 0, pretend = 0, frame = 8
 260              		@ frame_needed = 1, uses_anonymous_args = 0
 261              		@ link register save eliminated.
 262 0000 80B4     		push	{r7}
 263              	.LCFI16:
 264              		.cfi_def_cfa_offset 4
 265              		.cfi_offset 7, -4
 266 0002 83B0     		sub	sp, sp, #12
 267              	.LCFI17:
 268              		.cfi_def_cfa_offset 16
 269 0004 00AF     		add	r7, sp, #0
 270              	.LCFI18:
 271              		.cfi_def_cfa_register 7
 234:.\Generated_Source\PSoC5/end_echo_IRR.c ****     uint8 priority;
 235:.\Generated_Source\PSoC5/end_echo_IRR.c **** 
 236:.\Generated_Source\PSoC5/end_echo_IRR.c **** 
 237:.\Generated_Source\PSoC5/end_echo_IRR.c ****     priority = *end_echo_IRR_INTC_PRIOR >> 5;
 272              		.loc 1 237 0
 273 0006 4FF46443 		mov	r3, #58368
 274 000a CEF20003 		movt	r3, 57344
 275 000e 1B78     		ldrb	r3, [r3, #0]
 276 0010 DBB2     		uxtb	r3, r3
ARM GAS  D:\Users\BertoTech\TEMP\ccNGJ7vI.s 			page 10


 277 0012 4FEA5313 		lsr	r3, r3, #5
 278 0016 FB71     		strb	r3, [r7, #7]
 238:.\Generated_Source\PSoC5/end_echo_IRR.c **** 
 239:.\Generated_Source\PSoC5/end_echo_IRR.c ****     return priority;
 279              		.loc 1 239 0
 280 0018 FB79     		ldrb	r3, [r7, #7]	@ zero_extendqisi2
 240:.\Generated_Source\PSoC5/end_echo_IRR.c **** }
 281              		.loc 1 240 0
 282 001a 1846     		mov	r0, r3
 283 001c 07F10C07 		add	r7, r7, #12
 284 0020 BD46     		mov	sp, r7
 285 0022 80BC     		pop	{r7}
 286 0024 7047     		bx	lr
 287              		.cfi_endproc
 288              	.LFE6:
 289              		.size	end_echo_IRR_GetPriority, .-end_echo_IRR_GetPriority
 290 0026 00BF     		.section	.text.end_echo_IRR_Enable,"ax",%progbits
 291              		.align	2
 292              		.global	end_echo_IRR_Enable
 293              		.thumb
 294              		.thumb_func
 295              		.type	end_echo_IRR_Enable, %function
 296              	end_echo_IRR_Enable:
 297              	.LFB7:
 241:.\Generated_Source\PSoC5/end_echo_IRR.c **** 
 242:.\Generated_Source\PSoC5/end_echo_IRR.c **** 
 243:.\Generated_Source\PSoC5/end_echo_IRR.c **** /*******************************************************************************
 244:.\Generated_Source\PSoC5/end_echo_IRR.c **** * Function Name: end_echo_IRR_Enable
 245:.\Generated_Source\PSoC5/end_echo_IRR.c **** ********************************************************************************
 246:.\Generated_Source\PSoC5/end_echo_IRR.c **** *
 247:.\Generated_Source\PSoC5/end_echo_IRR.c **** * Summary:
 248:.\Generated_Source\PSoC5/end_echo_IRR.c **** *   Enables the interrupt.
 249:.\Generated_Source\PSoC5/end_echo_IRR.c **** *
 250:.\Generated_Source\PSoC5/end_echo_IRR.c **** * Parameters:
 251:.\Generated_Source\PSoC5/end_echo_IRR.c **** *   None
 252:.\Generated_Source\PSoC5/end_echo_IRR.c **** *
 253:.\Generated_Source\PSoC5/end_echo_IRR.c **** * Return:
 254:.\Generated_Source\PSoC5/end_echo_IRR.c **** *   None
 255:.\Generated_Source\PSoC5/end_echo_IRR.c **** *
 256:.\Generated_Source\PSoC5/end_echo_IRR.c **** *******************************************************************************/
 257:.\Generated_Source\PSoC5/end_echo_IRR.c **** void end_echo_IRR_Enable(void)
 258:.\Generated_Source\PSoC5/end_echo_IRR.c **** {
 298              		.loc 1 258 0
 299              		.cfi_startproc
 300              		@ args = 0, pretend = 0, frame = 0
 301              		@ frame_needed = 1, uses_anonymous_args = 0
 302              		@ link register save eliminated.
 303 0000 80B4     		push	{r7}
 304              	.LCFI19:
 305              		.cfi_def_cfa_offset 4
 306              		.cfi_offset 7, -4
 307 0002 00AF     		add	r7, sp, #0
 308              	.LCFI20:
 309              		.cfi_def_cfa_register 7
 259:.\Generated_Source\PSoC5/end_echo_IRR.c ****     /* Enable the general interrupt. */
 260:.\Generated_Source\PSoC5/end_echo_IRR.c ****     *end_echo_IRR_INTC_SET_EN = end_echo_IRR__INTC_MASK;
 310              		.loc 1 260 0
ARM GAS  D:\Users\BertoTech\TEMP\ccNGJ7vI.s 			page 11


 311 0004 4FF46143 		mov	r3, #57600
 312 0008 CEF20003 		movt	r3, 57344
 313 000c 4FF00102 		mov	r2, #1
 314 0010 1A60     		str	r2, [r3, #0]
 261:.\Generated_Source\PSoC5/end_echo_IRR.c **** }
 315              		.loc 1 261 0
 316 0012 BD46     		mov	sp, r7
 317 0014 80BC     		pop	{r7}
 318 0016 7047     		bx	lr
 319              		.cfi_endproc
 320              	.LFE7:
 321              		.size	end_echo_IRR_Enable, .-end_echo_IRR_Enable
 322              		.section	.text.end_echo_IRR_GetState,"ax",%progbits
 323              		.align	2
 324              		.global	end_echo_IRR_GetState
 325              		.thumb
 326              		.thumb_func
 327              		.type	end_echo_IRR_GetState, %function
 328              	end_echo_IRR_GetState:
 329              	.LFB8:
 262:.\Generated_Source\PSoC5/end_echo_IRR.c **** 
 263:.\Generated_Source\PSoC5/end_echo_IRR.c **** 
 264:.\Generated_Source\PSoC5/end_echo_IRR.c **** /*******************************************************************************
 265:.\Generated_Source\PSoC5/end_echo_IRR.c **** * Function Name: end_echo_IRR_GetState
 266:.\Generated_Source\PSoC5/end_echo_IRR.c **** ********************************************************************************
 267:.\Generated_Source\PSoC5/end_echo_IRR.c **** *
 268:.\Generated_Source\PSoC5/end_echo_IRR.c **** * Summary:
 269:.\Generated_Source\PSoC5/end_echo_IRR.c **** *   Gets the state (enabled, disabled) of the Interrupt.
 270:.\Generated_Source\PSoC5/end_echo_IRR.c **** *
 271:.\Generated_Source\PSoC5/end_echo_IRR.c **** * Parameters:
 272:.\Generated_Source\PSoC5/end_echo_IRR.c **** *   None
 273:.\Generated_Source\PSoC5/end_echo_IRR.c **** *
 274:.\Generated_Source\PSoC5/end_echo_IRR.c **** * Return:
 275:.\Generated_Source\PSoC5/end_echo_IRR.c **** *   1 if enabled, 0 if disabled.
 276:.\Generated_Source\PSoC5/end_echo_IRR.c **** *
 277:.\Generated_Source\PSoC5/end_echo_IRR.c **** *******************************************************************************/
 278:.\Generated_Source\PSoC5/end_echo_IRR.c **** uint8 end_echo_IRR_GetState(void)
 279:.\Generated_Source\PSoC5/end_echo_IRR.c **** {
 330              		.loc 1 279 0
 331              		.cfi_startproc
 332              		@ args = 0, pretend = 0, frame = 0
 333              		@ frame_needed = 1, uses_anonymous_args = 0
 334              		@ link register save eliminated.
 335 0000 80B4     		push	{r7}
 336              	.LCFI21:
 337              		.cfi_def_cfa_offset 4
 338              		.cfi_offset 7, -4
 339 0002 00AF     		add	r7, sp, #0
 340              	.LCFI22:
 341              		.cfi_def_cfa_register 7
 280:.\Generated_Source\PSoC5/end_echo_IRR.c ****     /* Get the state of the general interrupt. */
 281:.\Generated_Source\PSoC5/end_echo_IRR.c ****     return ((*end_echo_IRR_INTC_SET_EN & (uint32)end_echo_IRR__INTC_MASK) != 0u) ? 1u:0u;
 342              		.loc 1 281 0
 343 0004 4FF46143 		mov	r3, #57600
 344 0008 CEF20003 		movt	r3, 57344
 345 000c 1B68     		ldr	r3, [r3, #0]
 346 000e DBB2     		uxtb	r3, r3
ARM GAS  D:\Users\BertoTech\TEMP\ccNGJ7vI.s 			page 12


 347 0010 03F00103 		and	r3, r3, #1
 348 0014 DBB2     		uxtb	r3, r3
 282:.\Generated_Source\PSoC5/end_echo_IRR.c **** }
 349              		.loc 1 282 0
 350 0016 1846     		mov	r0, r3
 351 0018 BD46     		mov	sp, r7
 352 001a 80BC     		pop	{r7}
 353 001c 7047     		bx	lr
 354              		.cfi_endproc
 355              	.LFE8:
 356              		.size	end_echo_IRR_GetState, .-end_echo_IRR_GetState
 357 001e 00BF     		.section	.text.end_echo_IRR_Disable,"ax",%progbits
 358              		.align	2
 359              		.global	end_echo_IRR_Disable
 360              		.thumb
 361              		.thumb_func
 362              		.type	end_echo_IRR_Disable, %function
 363              	end_echo_IRR_Disable:
 364              	.LFB9:
 283:.\Generated_Source\PSoC5/end_echo_IRR.c **** 
 284:.\Generated_Source\PSoC5/end_echo_IRR.c **** 
 285:.\Generated_Source\PSoC5/end_echo_IRR.c **** /*******************************************************************************
 286:.\Generated_Source\PSoC5/end_echo_IRR.c **** * Function Name: end_echo_IRR_Disable
 287:.\Generated_Source\PSoC5/end_echo_IRR.c **** ********************************************************************************
 288:.\Generated_Source\PSoC5/end_echo_IRR.c **** *
 289:.\Generated_Source\PSoC5/end_echo_IRR.c **** * Summary:
 290:.\Generated_Source\PSoC5/end_echo_IRR.c **** *   Disables the Interrupt.
 291:.\Generated_Source\PSoC5/end_echo_IRR.c **** *
 292:.\Generated_Source\PSoC5/end_echo_IRR.c **** * Parameters:
 293:.\Generated_Source\PSoC5/end_echo_IRR.c **** *   None
 294:.\Generated_Source\PSoC5/end_echo_IRR.c **** *
 295:.\Generated_Source\PSoC5/end_echo_IRR.c **** * Return:
 296:.\Generated_Source\PSoC5/end_echo_IRR.c **** *   None
 297:.\Generated_Source\PSoC5/end_echo_IRR.c **** *
 298:.\Generated_Source\PSoC5/end_echo_IRR.c **** *******************************************************************************/
 299:.\Generated_Source\PSoC5/end_echo_IRR.c **** void end_echo_IRR_Disable(void)
 300:.\Generated_Source\PSoC5/end_echo_IRR.c **** {
 365              		.loc 1 300 0
 366              		.cfi_startproc
 367              		@ args = 0, pretend = 0, frame = 0
 368              		@ frame_needed = 1, uses_anonymous_args = 0
 369              		@ link register save eliminated.
 370 0000 80B4     		push	{r7}
 371              	.LCFI23:
 372              		.cfi_def_cfa_offset 4
 373              		.cfi_offset 7, -4
 374 0002 00AF     		add	r7, sp, #0
 375              	.LCFI24:
 376              		.cfi_def_cfa_register 7
 301:.\Generated_Source\PSoC5/end_echo_IRR.c ****     /* Disable the general interrupt. */
 302:.\Generated_Source\PSoC5/end_echo_IRR.c ****     *end_echo_IRR_INTC_CLR_EN = end_echo_IRR__INTC_MASK;
 377              		.loc 1 302 0
 378 0004 4EF28013 		movw	r3, #57728
 379 0008 CEF20003 		movt	r3, 57344
 380 000c 4FF00102 		mov	r2, #1
 381 0010 1A60     		str	r2, [r3, #0]
 303:.\Generated_Source\PSoC5/end_echo_IRR.c **** }
ARM GAS  D:\Users\BertoTech\TEMP\ccNGJ7vI.s 			page 13


 382              		.loc 1 303 0
 383 0012 BD46     		mov	sp, r7
 384 0014 80BC     		pop	{r7}
 385 0016 7047     		bx	lr
 386              		.cfi_endproc
 387              	.LFE9:
 388              		.size	end_echo_IRR_Disable, .-end_echo_IRR_Disable
 389              		.section	.text.end_echo_IRR_SetPending,"ax",%progbits
 390              		.align	2
 391              		.global	end_echo_IRR_SetPending
 392              		.thumb
 393              		.thumb_func
 394              		.type	end_echo_IRR_SetPending, %function
 395              	end_echo_IRR_SetPending:
 396              	.LFB10:
 304:.\Generated_Source\PSoC5/end_echo_IRR.c **** 
 305:.\Generated_Source\PSoC5/end_echo_IRR.c **** 
 306:.\Generated_Source\PSoC5/end_echo_IRR.c **** /*******************************************************************************
 307:.\Generated_Source\PSoC5/end_echo_IRR.c **** * Function Name: end_echo_IRR_SetPending
 308:.\Generated_Source\PSoC5/end_echo_IRR.c **** ********************************************************************************
 309:.\Generated_Source\PSoC5/end_echo_IRR.c **** *
 310:.\Generated_Source\PSoC5/end_echo_IRR.c **** * Summary:
 311:.\Generated_Source\PSoC5/end_echo_IRR.c **** *   Causes the Interrupt to enter the pending state, a software method of
 312:.\Generated_Source\PSoC5/end_echo_IRR.c **** *   generating the interrupt.
 313:.\Generated_Source\PSoC5/end_echo_IRR.c **** *
 314:.\Generated_Source\PSoC5/end_echo_IRR.c **** * Parameters:
 315:.\Generated_Source\PSoC5/end_echo_IRR.c **** *   None
 316:.\Generated_Source\PSoC5/end_echo_IRR.c **** *
 317:.\Generated_Source\PSoC5/end_echo_IRR.c **** * Return:
 318:.\Generated_Source\PSoC5/end_echo_IRR.c **** *   None
 319:.\Generated_Source\PSoC5/end_echo_IRR.c **** *
 320:.\Generated_Source\PSoC5/end_echo_IRR.c **** *******************************************************************************/
 321:.\Generated_Source\PSoC5/end_echo_IRR.c **** void end_echo_IRR_SetPending(void)
 322:.\Generated_Source\PSoC5/end_echo_IRR.c **** {
 397              		.loc 1 322 0
 398              		.cfi_startproc
 399              		@ args = 0, pretend = 0, frame = 0
 400              		@ frame_needed = 1, uses_anonymous_args = 0
 401              		@ link register save eliminated.
 402 0000 80B4     		push	{r7}
 403              	.LCFI25:
 404              		.cfi_def_cfa_offset 4
 405              		.cfi_offset 7, -4
 406 0002 00AF     		add	r7, sp, #0
 407              	.LCFI26:
 408              		.cfi_def_cfa_register 7
 323:.\Generated_Source\PSoC5/end_echo_IRR.c ****     *end_echo_IRR_INTC_SET_PD = end_echo_IRR__INTC_MASK;
 409              		.loc 1 323 0
 410 0004 4FF46243 		mov	r3, #57856
 411 0008 CEF20003 		movt	r3, 57344
 412 000c 4FF00102 		mov	r2, #1
 413 0010 1A60     		str	r2, [r3, #0]
 324:.\Generated_Source\PSoC5/end_echo_IRR.c **** }
 414              		.loc 1 324 0
 415 0012 BD46     		mov	sp, r7
 416 0014 80BC     		pop	{r7}
 417 0016 7047     		bx	lr
ARM GAS  D:\Users\BertoTech\TEMP\ccNGJ7vI.s 			page 14


 418              		.cfi_endproc
 419              	.LFE10:
 420              		.size	end_echo_IRR_SetPending, .-end_echo_IRR_SetPending
 421              		.section	.text.end_echo_IRR_ClearPending,"ax",%progbits
 422              		.align	2
 423              		.global	end_echo_IRR_ClearPending
 424              		.thumb
 425              		.thumb_func
 426              		.type	end_echo_IRR_ClearPending, %function
 427              	end_echo_IRR_ClearPending:
 428              	.LFB11:
 325:.\Generated_Source\PSoC5/end_echo_IRR.c **** 
 326:.\Generated_Source\PSoC5/end_echo_IRR.c **** 
 327:.\Generated_Source\PSoC5/end_echo_IRR.c **** /*******************************************************************************
 328:.\Generated_Source\PSoC5/end_echo_IRR.c **** * Function Name: end_echo_IRR_ClearPending
 329:.\Generated_Source\PSoC5/end_echo_IRR.c **** ********************************************************************************
 330:.\Generated_Source\PSoC5/end_echo_IRR.c **** *
 331:.\Generated_Source\PSoC5/end_echo_IRR.c **** * Summary:
 332:.\Generated_Source\PSoC5/end_echo_IRR.c **** *   Clears a pending interrupt.
 333:.\Generated_Source\PSoC5/end_echo_IRR.c **** *
 334:.\Generated_Source\PSoC5/end_echo_IRR.c **** * Parameters:
 335:.\Generated_Source\PSoC5/end_echo_IRR.c **** *   None
 336:.\Generated_Source\PSoC5/end_echo_IRR.c **** *
 337:.\Generated_Source\PSoC5/end_echo_IRR.c **** * Return:
 338:.\Generated_Source\PSoC5/end_echo_IRR.c **** *   None
 339:.\Generated_Source\PSoC5/end_echo_IRR.c **** *
 340:.\Generated_Source\PSoC5/end_echo_IRR.c **** *******************************************************************************/
 341:.\Generated_Source\PSoC5/end_echo_IRR.c **** void end_echo_IRR_ClearPending(void)
 342:.\Generated_Source\PSoC5/end_echo_IRR.c **** {
 429              		.loc 1 342 0
 430              		.cfi_startproc
 431              		@ args = 0, pretend = 0, frame = 0
 432              		@ frame_needed = 1, uses_anonymous_args = 0
 433              		@ link register save eliminated.
 434 0000 80B4     		push	{r7}
 435              	.LCFI27:
 436              		.cfi_def_cfa_offset 4
 437              		.cfi_offset 7, -4
 438 0002 00AF     		add	r7, sp, #0
 439              	.LCFI28:
 440              		.cfi_def_cfa_register 7
 343:.\Generated_Source\PSoC5/end_echo_IRR.c ****     *end_echo_IRR_INTC_CLR_PD = end_echo_IRR__INTC_MASK;
 441              		.loc 1 343 0
 442 0004 4EF28023 		movw	r3, #57984
 443 0008 CEF20003 		movt	r3, 57344
 444 000c 4FF00102 		mov	r2, #1
 445 0010 1A60     		str	r2, [r3, #0]
 344:.\Generated_Source\PSoC5/end_echo_IRR.c **** }
 446              		.loc 1 344 0
 447 0012 BD46     		mov	sp, r7
 448 0014 80BC     		pop	{r7}
 449 0016 7047     		bx	lr
 450              		.cfi_endproc
 451              	.LFE11:
 452              		.size	end_echo_IRR_ClearPending, .-end_echo_IRR_ClearPending
 453              		.text
 454              	.Letext0:
ARM GAS  D:\Users\BertoTech\TEMP\ccNGJ7vI.s 			page 15


 455              		.file 2 "./Generated_Source/PSoC5/cytypes.h"