ARM GAS  C:\Users\gmh5970\AppData\Local\Temp\ccDNFPTs.s 			page 1


   1              		.syntax unified
   2              		.cpu cortex-m3
   3              		.fpu softvfp
   4              		.eabi_attribute 20, 1
   5              		.eabi_attribute 21, 1
   6              		.eabi_attribute 23, 3
   7              		.eabi_attribute 24, 1
   8              		.eabi_attribute 25, 1
   9              		.eabi_attribute 26, 1
  10              		.eabi_attribute 30, 6
  11              		.eabi_attribute 34, 1
  12              		.eabi_attribute 18, 4
  13              		.thumb
  14              		.file	"main.c"
  15              		.text
  16              	.Ltext0:
  17              		.cfi_sections	.debug_frame
  18              		.global _printf_float
  19              		.thumb
  20              		.section	.text.start_echo_IRR_Interrupt,"ax",%progbits
  21              		.align	2
  22              		.global	start_echo_IRR_Interrupt
  23              		.thumb
  24              		.thumb_func
  25              		.type	start_echo_IRR_Interrupt, %function
  26              	start_echo_IRR_Interrupt:
  27              	.LFB56:
  28              		.file 1 ".\\main.c"
   1:.\main.c      **** /*********************************************************************************
   2:.\main.c      **** * Project Name:      Firmware Fan Control 
   3:.\main.c      **** * Version:           1.20
   4:.\main.c      **** *
   5:.\main.c      **** * Device Used:       PSoC 3 CY8C3866AXI-040 or PSoC 5 CY8C5588AXI-060ES1
   6:.\main.c      **** * Software Used:     PSoC Creator v2.1
   7:.\main.c      **** * Compiler Used:     Keil(C51), ARM GNU CC
   8:.\main.c      **** * Related Hardware:  CY8CKIT-001 PSoC DVK
   9:.\main.c      **** *********************************************************************************
  10:.\main.c      **** * Theory of Operation:
  11:.\main.c      **** *
  12:.\main.c      **** *  The Fan Controller is configured into the firmware (CPU) fan control mode
  13:.\main.c      **** *  The speed control algorithm is implemented in the firmware
  14:.\main.c      **** *  The firmware synchornizes to hardware using the end-of-cycle (eoc) pulse
  15:.\main.c      **** *  2 Fans are supported (individual PWMs - no banks)
  16:.\main.c      **** *
  17:.\main.c      **** *  1st line of LCD displays Desired Speed and Actual Speed and PWM Duty Cycle of Fan 1
  18:.\main.c      **** *  2nd line of LCD displays Actual Speed and PWM Duty Cycle of Fan 2
  19:.\main.c      **** *  SW1 decreases desired speed in RPM
  20:.\main.c      **** *  SW2 increases desired speed in RPM
  21:.\main.c      **** *
  22:.\main.c      **** ********************************************************************************
  23:.\main.c      **** * Copyright 2013, Cypress Semiconductor Corporation. All rights reserved.
  24:.\main.c      **** * This software is owned by Cypress Semiconductor Corporation and is protected
  25:.\main.c      **** * by and subject to worldwide patent and copyright laws and treaties.
  26:.\main.c      **** * Therefore, you may use this software only as provided in the license agreement
  27:.\main.c      **** * accompanying the software package from which you obtained this software.
  28:.\main.c      **** * CYPRESS AND ITS SUPPLIERS MAKE NO WARRANTY OF ANY KIND, EXPRESS OR IMPLIED,
  29:.\main.c      **** * WITH REGARD TO THIS SOFTWARE, INCLUDING, BUT NOT LIMITED TO, NONINFRINGEMENT,
ARM GAS  C:\Users\gmh5970\AppData\Local\Temp\ccDNFPTs.s 			page 2


  30:.\main.c      **** * IMPLIED WARRANTIES OF MERCHANTABILITY AND FITNESS FOR A PARTICULAR PURPOSE.
  31:.\main.c      **** *******************************************************************************/
  32:.\main.c      **** 
  33:.\main.c      **** #define LCD_CUR_ECHO (LCD_Position(0u, 8u))
  34:.\main.c      **** #define LCD_MAX_ECHO (LCD_Position(0u, 0u))
  35:.\main.c      **** #define LCD_MIN_DUTY (LCD_Position(1u, 8u))
  36:.\main.c      **** #define LCD_MAX_DUTY (LCD_Position(1u, 0u))
  37:.\main.c      **** 
  38:.\main.c      **** #include <device.h>
  39:.\main.c      **** #include <stdio.h>
  40:.\main.c      **** 
  41:.\main.c      **** #if defined (__GNUC__)
  42:.\main.c      ****     /* Add an explicit reference to the floating point printf library */
  43:.\main.c      ****     /* to allow the usage of floating point conversion specifiers. */
  44:.\main.c      ****     /* This is not linked in by default with the newlib-nano library. */
  45:.\main.c      ****     asm (".global _printf_float");
  46:.\main.c      **** #endif
  47:.\main.c      **** 
  48:.\main.c      **** 
  49:.\main.c      **** /* PWM duty cycle controls - units are hundredths of a percent */
  50:.\main.c      **** #define MIN_DUTY            (50u)
  51:.\main.c      **** #define MAX_DUTY            (9950u)
  52:.\main.c      **** #define DUTY_STEP_COARSE    (100u)
  53:.\main.c      **** #define DUTY_STEP_FINE      (2u)
  54:.\main.c      **** 
  55:.\main.c      **** /* Speed controls - units are RPM */
  56:.\main.c      **** #define MIN_RPM             (2500u)
  57:.\main.c      **** #define MAX_RPM             (9500u)
  58:.\main.c      **** #define INIT_RPM            (4500u)
  59:.\main.c      **** #define RPM_STEP            (500u)
  60:.\main.c      **** #define RPM_DELTA_LARGE     (500u)
  61:.\main.c      **** #define RPM_TOLERANCE       (100u)
  62:.\main.c      **** 
  63:.\main.c      **** #define FAN                 (1u)
  64:.\main.c      **** 
  65:.\main.c      **** // Echo averaging factor - determined to give high accuracy and low latency of distance mesaurement
  66:.\main.c      **** #define FACTOR              (8u)
  67:.\main.c      **** 
  68:.\main.c      **** #include <device.h>
  69:.\main.c      **** #include <end_echo_IRR.h>
  70:.\main.c      **** #include <Echo_Timer.h>
  71:.\main.c      **** #include <start_echo_IRR.h>
  72:.\main.c      **** #include <stdio.h>
  73:.\main.c      **** #include <time.h>
  74:.\main.c      **** 
  75:.\main.c      **** CY_ISR(start_echo_IRR_Interrupt)
  76:.\main.c      **** {
  29              		.loc 1 76 0
  30              		.cfi_startproc
  31              		@ args = 0, pretend = 0, frame = 0
  32              		@ frame_needed = 1, uses_anonymous_args = 0
  33 0000 80B5     		push	{r7, lr}
  34              	.LCFI0:
  35              		.cfi_def_cfa_offset 8
  36              		.cfi_offset 7, -8
  37              		.cfi_offset 14, -4
  38 0002 00AF     		add	r7, sp, #0
ARM GAS  C:\Users\gmh5970\AppData\Local\Temp\ccDNFPTs.s 			page 3


  39              	.LCFI1:
  40              		.cfi_def_cfa_register 7
  77:.\main.c      ****     start_echo_IRR_ClearPending(); 
  41              		.loc 1 77 0
  42 0004 FFF7FEFF 		bl	start_echo_IRR_ClearPending
  78:.\main.c      ****     
  79:.\main.c      ****     Echo_Timer_Stop();
  43              		.loc 1 79 0
  44 0008 FFF7FEFF 		bl	Echo_Timer_Stop
  80:.\main.c      ****     Echo_Timer_Init();
  45              		.loc 1 80 0
  46 000c FFF7FEFF 		bl	Echo_Timer_Init
  81:.\main.c      ****     Echo_Timer_Start();
  47              		.loc 1 81 0
  48 0010 FFF7FEFF 		bl	Echo_Timer_Start
  82:.\main.c      **** }
  49              		.loc 1 82 0
  50 0014 80BD     		pop	{r7, pc}
  51              		.cfi_endproc
  52              	.LFE56:
  53              		.size	start_echo_IRR_Interrupt, .-start_echo_IRR_Interrupt
  54              		.global	echoes
  55 0016 00BF     		.bss
  56              		.align	2
  57              		.type	echoes, %object
  58              		.size	echoes, 32
  59              	echoes:
  60 0000 00000000 		.space	32
  60      00000000 
  60      00000000 
  60      00000000 
  60      00000000 
  61              		.global	position
  62              		.type	position, %object
  63              		.size	position, 1
  64              	position:
  65 0020 00       		.space	1
  66 0021 000000   		.section	.text.end_echo_IRR_Interrupt,"ax",%progbits
  67              		.align	2
  68              		.global	end_echo_IRR_Interrupt
  69              		.thumb
  70              		.thumb_func
  71              		.type	end_echo_IRR_Interrupt, %function
  72              	end_echo_IRR_Interrupt:
  73              	.LFB57:
  83:.\main.c      **** 
  84:.\main.c      **** uint32 echoes[FACTOR] = {0}; // The most recent echo values
  85:.\main.c      **** uint8 position = 0; // The current index in the 'echoes' list
  86:.\main.c      **** 
  87:.\main.c      **** CY_ISR(end_echo_IRR_Interrupt)
  88:.\main.c      **** {
  74              		.loc 1 88 0
  75              		.cfi_startproc
  76              		@ args = 0, pretend = 0, frame = 0
  77              		@ frame_needed = 1, uses_anonymous_args = 0
  78 0000 B0B5     		push	{r4, r5, r7, lr}
  79              	.LCFI2:
ARM GAS  C:\Users\gmh5970\AppData\Local\Temp\ccDNFPTs.s 			page 4


  80              		.cfi_def_cfa_offset 16
  81              		.cfi_offset 4, -16
  82              		.cfi_offset 5, -12
  83              		.cfi_offset 7, -8
  84              		.cfi_offset 14, -4
  85 0002 00AF     		add	r7, sp, #0
  86              	.LCFI3:
  87              		.cfi_def_cfa_register 7
  89:.\main.c      **** 
  90:.\main.c      ****     end_echo_IRR_ClearPending();    
  88              		.loc 1 90 0
  89 0004 FFF7FEFF 		bl	end_echo_IRR_ClearPending
  91:.\main.c      ****     echoes[position++] = Echo_Timer_ReadCounter();
  90              		.loc 1 91 0
  91 0008 40F20003 		movw	r3, #:lower16:position
  92 000c C0F20003 		movt	r3, #:upper16:position
  93 0010 1C78     		ldrb	r4, [r3, #0]	@ zero_extendqisi2
  94 0012 2546     		mov	r5, r4
  95 0014 FFF7FEFF 		bl	Echo_Timer_ReadCounter
  96 0018 0246     		mov	r2, r0
  97 001a 40F20003 		movw	r3, #:lower16:echoes
  98 001e C0F20003 		movt	r3, #:upper16:echoes
  99 0022 43F82520 		str	r2, [r3, r5, lsl #2]
 100 0026 04F10103 		add	r3, r4, #1
 101 002a DAB2     		uxtb	r2, r3
 102 002c 40F20003 		movw	r3, #:lower16:position
 103 0030 C0F20003 		movt	r3, #:upper16:position
 104 0034 1A70     		strb	r2, [r3, #0]
  92:.\main.c      ****     position %= FACTOR;
 105              		.loc 1 92 0
 106 0036 40F20003 		movw	r3, #:lower16:position
 107 003a C0F20003 		movt	r3, #:upper16:position
 108 003e 1B78     		ldrb	r3, [r3, #0]	@ zero_extendqisi2
 109 0040 03F00703 		and	r3, r3, #7
 110 0044 DAB2     		uxtb	r2, r3
 111 0046 40F20003 		movw	r3, #:lower16:position
 112 004a C0F20003 		movt	r3, #:upper16:position
 113 004e 1A70     		strb	r2, [r3, #0]
  93:.\main.c      ****     Echo_Timer_Stop();
 114              		.loc 1 93 0
 115 0050 FFF7FEFF 		bl	Echo_Timer_Stop
  94:.\main.c      **** }
 116              		.loc 1 94 0
 117 0054 B0BD     		pop	{r4, r5, r7, pc}
 118              		.cfi_endproc
 119              	.LFE57:
 120              		.size	end_echo_IRR_Interrupt, .-end_echo_IRR_Interrupt
 121 0056 00BF     		.section	.text.getEcho,"ax",%progbits
 122              		.align	2
 123              		.global	getEcho
 124              		.thumb
 125              		.thumb_func
 126              		.type	getEcho, %function
 127              	getEcho:
 128              	.LFB58:
  95:.\main.c      **** 
  96:.\main.c      **** /* Returns the average of the most recent echo values */
ARM GAS  C:\Users\gmh5970\AppData\Local\Temp\ccDNFPTs.s 			page 5


  97:.\main.c      **** uint16 getEcho() {
 129              		.loc 1 97 0
 130              		.cfi_startproc
 131              		@ args = 0, pretend = 0, frame = 8
 132              		@ frame_needed = 1, uses_anonymous_args = 0
 133              		@ link register save eliminated.
 134 0000 80B4     		push	{r7}
 135              	.LCFI4:
 136              		.cfi_def_cfa_offset 4
 137              		.cfi_offset 7, -4
 138 0002 83B0     		sub	sp, sp, #12
 139              	.LCFI5:
 140              		.cfi_def_cfa_offset 16
 141 0004 00AF     		add	r7, sp, #0
 142              	.LCFI6:
 143              		.cfi_def_cfa_register 7
  98:.\main.c      ****     uint32 sum = 0;
 144              		.loc 1 98 0
 145 0006 4FF00003 		mov	r3, #0
 146 000a 7B60     		str	r3, [r7, #4]
  99:.\main.c      ****     int i;
 100:.\main.c      ****     for (i=0; i<FACTOR; i++) {
 147              		.loc 1 100 0
 148 000c 4FF00003 		mov	r3, #0
 149 0010 3B60     		str	r3, [r7, #0]
 150 0012 0DE0     		b	.L4
 151              	.L5:
 101:.\main.c      ****         sum += echoes[i];
 152              		.loc 1 101 0 discriminator 2
 153 0014 40F20003 		movw	r3, #:lower16:echoes
 154 0018 C0F20003 		movt	r3, #:upper16:echoes
 155 001c 3A68     		ldr	r2, [r7, #0]
 156 001e 53F82230 		ldr	r3, [r3, r2, lsl #2]
 157 0022 7A68     		ldr	r2, [r7, #4]
 158 0024 D318     		adds	r3, r2, r3
 159 0026 7B60     		str	r3, [r7, #4]
 100:.\main.c      ****     for (i=0; i<FACTOR; i++) {
 160              		.loc 1 100 0 discriminator 2
 161 0028 3B68     		ldr	r3, [r7, #0]
 162 002a 03F10103 		add	r3, r3, #1
 163 002e 3B60     		str	r3, [r7, #0]
 164              	.L4:
 100:.\main.c      ****     for (i=0; i<FACTOR; i++) {
 165              		.loc 1 100 0 is_stmt 0 discriminator 1
 166 0030 3B68     		ldr	r3, [r7, #0]
 167 0032 072B     		cmp	r3, #7
 168 0034 EED9     		bls	.L5
 102:.\main.c      ****     }
 103:.\main.c      ****     return (sum/FACTOR)>>12; // Reduce the result to the significant digits only
 169              		.loc 1 103 0 is_stmt 1
 170 0036 7B68     		ldr	r3, [r7, #4]
 171 0038 4FEAD303 		lsr	r3, r3, #3
 172 003c 4FEA1333 		lsr	r3, r3, #12
 173 0040 9BB2     		uxth	r3, r3
 104:.\main.c      **** }
 174              		.loc 1 104 0
 175 0042 1846     		mov	r0, r3
ARM GAS  C:\Users\gmh5970\AppData\Local\Temp\ccDNFPTs.s 			page 6


 176 0044 07F10C07 		add	r7, r7, #12
 177 0048 BD46     		mov	sp, r7
 178 004a 80BC     		pop	{r7}
 179 004c 7047     		bx	lr
 180              		.cfi_endproc
 181              	.LFE58:
 182              		.size	getEcho, .-getEcho
 183              		.global	__aeabi_ui2f
 184              		.global	__aeabi_fdiv
 185              		.global	__aeabi_fmul
 186              		.global	__aeabi_fadd
 187              		.global	__aeabi_f2uiz
 188 004e 00BF     		.section	.text.main,"ax",%progbits
 189              		.align	2
 190              		.global	main
 191              		.thumb
 192              		.thumb_func
 193              		.type	main, %function
 194              	main:
 195              	.LFB59:
 105:.\main.c      ****     
 106:.\main.c      **** 
 107:.\main.c      **** void main()
 108:.\main.c      **** {
 196              		.loc 1 108 0
 197              		.cfi_startproc
 198              		@ args = 0, pretend = 0, frame = 32
 199              		@ frame_needed = 1, uses_anonymous_args = 0
 200 0000 80B5     		push	{r7, lr}
 201              	.LCFI7:
 202              		.cfi_def_cfa_offset 8
 203              		.cfi_offset 7, -8
 204              		.cfi_offset 14, -4
 205 0002 88B0     		sub	sp, sp, #32
 206              	.LCFI8:
 207              		.cfi_def_cfa_offset 40
 208 0004 00AF     		add	r7, sp, #0
 209              	.LCFI9:
 210              		.cfi_def_cfa_register 7
 109:.\main.c      ****     
 110:.\main.c      ****     /* Enable the global interrupt */
 111:.\main.c      ****     CyGlobalIntEnable;
 211              		.loc 1 111 0
 212              	@ 111 ".\main.c" 1
 213 0006 62B6     		CPSIE   i
 214              	@ 0 "" 2
 112:.\main.c      ****     
 113:.\main.c      ****     /* 1 - Enable the Interrupt component connected to Timer interrupt */
 114:.\main.c      ****     /* 2 - Start the components */
 115:.\main.c      **** 
 116:.\main.c      ****     Trigger_Timer_Start();
 215              		.loc 1 116 0
 216              		.thumb
 217 0008 FFF7FEFF 		bl	Trigger_Timer_Start
 117:.\main.c      ****     
 118:.\main.c      ****     start_echo_IRR_StartEx(start_echo_IRR_Interrupt);
 218              		.loc 1 118 0
ARM GAS  C:\Users\gmh5970\AppData\Local\Temp\ccDNFPTs.s 			page 7


 219 000c 40F20000 		movw	r0, #:lower16:start_echo_IRR_Interrupt
 220 0010 C0F20000 		movt	r0, #:upper16:start_echo_IRR_Interrupt
 221 0014 FFF7FEFF 		bl	start_echo_IRR_StartEx
 119:.\main.c      ****     start_echo_IRR_Start();
 222              		.loc 1 119 0
 223 0018 FFF7FEFF 		bl	start_echo_IRR_Start
 120:.\main.c      ****     
 121:.\main.c      ****     end_echo_IRR_StartEx(end_echo_IRR_Interrupt);
 224              		.loc 1 121 0
 225 001c 40F20000 		movw	r0, #:lower16:end_echo_IRR_Interrupt
 226 0020 C0F20000 		movt	r0, #:upper16:end_echo_IRR_Interrupt
 227 0024 FFF7FEFF 		bl	end_echo_IRR_StartEx
 122:.\main.c      ****     end_echo_IRR_Start();
 228              		.loc 1 122 0
 229 0028 FFF7FEFF 		bl	end_echo_IRR_Start
 123:.\main.c      ****     
 124:.\main.c      ****     /* Start LCD */
 125:.\main.c      ****     LCD_Start();
 230              		.loc 1 125 0
 231 002c FFF7FEFF 		bl	LCD_Start
 126:.\main.c      ****     
 127:.\main.c      ****     uint16  desiredSpeed = INIT_RPM;
 232              		.loc 1 127 0
 233 0030 41F29413 		movw	r3, #4500
 234 0034 3B83     		strh	r3, [r7, #24]	@ movhi
 128:.\main.c      ****     uint16 dutyCycle = MIN_DUTY;
 235              		.loc 1 128 0
 236 0036 4FF03203 		mov	r3, #50
 237 003a FB82     		strh	r3, [r7, #22]	@ movhi
 129:.\main.c      ****     
 130:.\main.c      ****     
 131:.\main.c      ****     /* Globally Enable Interrupts to the CPU Core */
 132:.\main.c      ****     CyGlobalIntEnable;
 238              		.loc 1 132 0
 239              	@ 132 ".\main.c" 1
 240 003c 62B6     		CPSIE   i
 241              	@ 0 "" 2
 133:.\main.c      ****     FanController_Start();
 242              		.loc 1 133 0
 243              		.thumb
 244 003e FFF7FEFF 		bl	FanController_Start
 134:.\main.c      ****     FanController_SetDesiredSpeed(FAN, desiredSpeed);
 245              		.loc 1 134 0
 246 0042 3B8B     		ldrh	r3, [r7, #24]
 247 0044 4FF00100 		mov	r0, #1
 248 0048 1946     		mov	r1, r3
 249 004a FFF7FEFF 		bl	FanController_SetDesiredSpeed
 135:.\main.c      ****     
 136:.\main.c      ****     ADC_DelSig_1_Start();
 250              		.loc 1 136 0
 251 004e FFF7FEFF 		bl	ADC_DelSig_1_Start
 137:.\main.c      **** 
 138:.\main.c      ****     /* Start the ADC conversion */
 139:.\main.c      ****     ADC_DelSig_1_StartConvert();
 252              		.loc 1 139 0
 253 0052 FFF7FEFF 		bl	ADC_DelSig_1_StartConvert
 140:.\main.c      ****     
ARM GAS  C:\Users\gmh5970\AppData\Local\Temp\ccDNFPTs.s 			page 8


 141:.\main.c      ****     // Wait for the ball to reach the bottom of the tube, and store the distance measured by the se
 142:.\main.c      ****     CyDelay(4000);
 254              		.loc 1 142 0
 255 0056 4FF47A60 		mov	r0, #4000
 256 005a FFF7FEFF 		bl	CyDelay
 143:.\main.c      ****     uint16 min_echo = getEcho();
 257              		.loc 1 143 0
 258 005e FFF7FEFF 		bl	getEcho
 259 0062 0346     		mov	r3, r0
 260 0064 BB82     		strh	r3, [r7, #20]	@ movhi
 144:.\main.c      ****     LCD_Position(0u, 12u);
 261              		.loc 1 144 0
 262 0066 4FF00000 		mov	r0, #0
 263 006a 4FF00C01 		mov	r1, #12
 264 006e FFF7FEFF 		bl	LCD_Position
 145:.\main.c      ****     LCD_PrintInt16(min_echo);
 265              		.loc 1 145 0
 266 0072 BB8A     		ldrh	r3, [r7, #20]
 267 0074 1846     		mov	r0, r3
 268 0076 FFF7FEFF 		bl	LCD_PrintInt16
 146:.\main.c      ****     
 147:.\main.c      ****     // Figure out min. duty cycle by increasing fan speed from 0 until the ball begins to move
 148:.\main.c      ****     // Start low for the min. and capture the value at which the ball starts to move.
 149:.\main.c      ****     uint16 minDuty = MIN_DUTY;
 269              		.loc 1 149 0
 270 007a 4FF03203 		mov	r3, #50
 271 007e FB83     		strh	r3, [r7, #30]	@ movhi
 150:.\main.c      ****     FanController_SetDesiredSpeed(FAN, MAX_RPM);
 272              		.loc 1 150 0
 273 0080 4FF00100 		mov	r0, #1
 274 0084 42F21C51 		movw	r1, #9500
 275 0088 FFF7FEFF 		bl	FanController_SetDesiredSpeed
 151:.\main.c      ****     // Set the fan to min (not spinning)
 152:.\main.c      ****     FanController_SetDutyCycle(FAN, minDuty);
 276              		.loc 1 152 0
 277 008c FB8B     		ldrh	r3, [r7, #30]
 278 008e 4FF00100 		mov	r0, #1
 279 0092 1946     		mov	r1, r3
 280 0094 FFF7FEFF 		bl	FanController_SetDutyCycle
 281 0098 00E0     		b	.L11
 282              	.L19:
 153:.\main.c      ****     
 154:.\main.c      ****     // Detect the minimum duty cycle needed to move the ball with this fan.
 155:.\main.c      ****     while (1u) {
 156:.\main.c      ****         
 157:.\main.c      ****         /* Synchronize firmware to end-of-cycle pulse from FanController */
 158:.\main.c      ****         if(EOC_SR_Read())
 159:.\main.c      ****         {
 160:.\main.c      ****             
 161:.\main.c      ****             // Increase fan speed
 162:.\main.c      ****             minDuty += DUTY_STEP_COARSE;
 163:.\main.c      ****             FanController_SetDutyCycle(FAN, minDuty);
 164:.\main.c      ****             
 165:.\main.c      ****             uint16 echo = getEcho();
 166:.\main.c      ****         
 167:.\main.c      ****             // Check if min duty should be set (ball has moved)
 168:.\main.c      ****             if ((echo)>((min_echo))){
ARM GAS  C:\Users\gmh5970\AppData\Local\Temp\ccDNFPTs.s 			page 9


 169:.\main.c      ****                 break;
 170:.\main.c      ****             }
 171:.\main.c      ****             
 172:.\main.c      ****             /* Display duty */
 173:.\main.c      ****             LCD_Position(0u, 0u);
 174:.\main.c      ****             LCD_PrintInt16(minDuty);
 175:.\main.c      ****             
 176:.\main.c      ****     		CyDelay(100u);
 177:.\main.c      ****          }
 178:.\main.c      ****     }
 283              		.loc 1 178 0
 284 009a 00BF     		nop
 285              	.L11:
 158:.\main.c      ****         if(EOC_SR_Read())
 286              		.loc 1 158 0
 287 009c FFF7FEFF 		bl	EOC_SR_Read
 288 00a0 0346     		mov	r3, r0
 289 00a2 002B     		cmp	r3, #0
 290 00a4 F9D0     		beq	.L19
 291              	.LBB2:
 162:.\main.c      ****             minDuty += DUTY_STEP_COARSE;
 292              		.loc 1 162 0
 293 00a6 FB8B     		ldrh	r3, [r7, #30]	@ movhi
 294 00a8 03F16403 		add	r3, r3, #100
 295 00ac FB83     		strh	r3, [r7, #30]	@ movhi
 163:.\main.c      ****             FanController_SetDutyCycle(FAN, minDuty);
 296              		.loc 1 163 0
 297 00ae FB8B     		ldrh	r3, [r7, #30]
 298 00b0 4FF00100 		mov	r0, #1
 299 00b4 1946     		mov	r1, r3
 300 00b6 FFF7FEFF 		bl	FanController_SetDutyCycle
 165:.\main.c      ****             uint16 echo = getEcho();
 301              		.loc 1 165 0
 302 00ba FFF7FEFF 		bl	getEcho
 303 00be 0346     		mov	r3, r0
 304 00c0 7B82     		strh	r3, [r7, #18]	@ movhi
 168:.\main.c      ****             if ((echo)>((min_echo))){
 305              		.loc 1 168 0
 306 00c2 7A8A     		ldrh	r2, [r7, #18]
 307 00c4 BB8A     		ldrh	r3, [r7, #20]
 308 00c6 9A42     		cmp	r2, r3
 309 00c8 0ED8     		bhi	.L20
 310              	.L9:
 173:.\main.c      ****             LCD_Position(0u, 0u);
 311              		.loc 1 173 0
 312 00ca 4FF00000 		mov	r0, #0
 313 00ce 4FF00001 		mov	r1, #0
 314 00d2 FFF7FEFF 		bl	LCD_Position
 174:.\main.c      ****             LCD_PrintInt16(minDuty);
 315              		.loc 1 174 0
 316 00d6 FB8B     		ldrh	r3, [r7, #30]
 317 00d8 1846     		mov	r0, r3
 318 00da FFF7FEFF 		bl	LCD_PrintInt16
 176:.\main.c      ****     		CyDelay(100u);
 319              		.loc 1 176 0
 320 00de 4FF06400 		mov	r0, #100
 321 00e2 FFF7FEFF 		bl	CyDelay
ARM GAS  C:\Users\gmh5970\AppData\Local\Temp\ccDNFPTs.s 			page 10


 322              	.LBE2:
 323              		.loc 1 178 0
 324 00e6 D8E7     		b	.L19
 325              	.L20:
 326              	.LBB3:
 169:.\main.c      ****                 break;
 327              		.loc 1 169 0
 328 00e8 00BF     		nop
 329              	.L18:
 330              	.LBE3:
 179:.\main.c      ****     
 180:.\main.c      ****     
 181:.\main.c      ****     //Let the ball move upwards until the minimum distance reading is found, then stop the fan & wa
 182:.\main.c      ****     uint16 max_echo = min_echo;
 331              		.loc 1 182 0
 332 00ea BB8A     		ldrh	r3, [r7, #20]	@ movhi
 333 00ec BB83     		strh	r3, [r7, #28]	@ movhi
 183:.\main.c      ****     uint16 no_change_counter = 0;
 334              		.loc 1 183 0
 335 00ee 4FF00003 		mov	r3, #0
 336 00f2 7B83     		strh	r3, [r7, #26]	@ movhi
 337 00f4 00E0     		b	.L15
 338              	.L21:
 184:.\main.c      ****     while(1u) {
 185:.\main.c      ****         CyDelay(500u);
 186:.\main.c      ****         uint16 echo = getEcho();
 187:.\main.c      ****         if (echo > max_echo) {
 188:.\main.c      ****             max_echo = echo;
 189:.\main.c      ****             no_change_counter = 0;
 190:.\main.c      ****         } else {
 191:.\main.c      ****             if (++no_change_counter > 10) {
 192:.\main.c      ****                 break;
 193:.\main.c      ****             }
 194:.\main.c      ****         }
 195:.\main.c      ****     }
 339              		.loc 1 195 0
 340 00f6 00BF     		nop
 341              	.L15:
 342              	.LBB4:
 185:.\main.c      ****         CyDelay(500u);
 343              		.loc 1 185 0
 344 00f8 4FF4FA70 		mov	r0, #500
 345 00fc FFF7FEFF 		bl	CyDelay
 186:.\main.c      ****         uint16 echo = getEcho();
 346              		.loc 1 186 0
 347 0100 FFF7FEFF 		bl	getEcho
 348 0104 0346     		mov	r3, r0
 349 0106 3B82     		strh	r3, [r7, #16]	@ movhi
 187:.\main.c      ****         if (echo > max_echo) {
 350              		.loc 1 187 0
 351 0108 3A8A     		ldrh	r2, [r7, #16]
 352 010a BB8B     		ldrh	r3, [r7, #28]
 353 010c 9A42     		cmp	r2, r3
 354 010e 05D9     		bls	.L12
 188:.\main.c      ****             max_echo = echo;
 355              		.loc 1 188 0
 356 0110 3B8A     		ldrh	r3, [r7, #16]	@ movhi
ARM GAS  C:\Users\gmh5970\AppData\Local\Temp\ccDNFPTs.s 			page 11


 357 0112 BB83     		strh	r3, [r7, #28]	@ movhi
 189:.\main.c      ****             no_change_counter = 0;
 358              		.loc 1 189 0
 359 0114 4FF00003 		mov	r3, #0
 360 0118 7B83     		strh	r3, [r7, #26]	@ movhi
 361              	.LBE4:
 362              		.loc 1 195 0
 363 011a ECE7     		b	.L21
 364              	.L12:
 365              	.LBB5:
 191:.\main.c      ****             if (++no_change_counter > 10) {
 366              		.loc 1 191 0
 367 011c 7B8B     		ldrh	r3, [r7, #26]	@ movhi
 368 011e 03F10103 		add	r3, r3, #1
 369 0122 7B83     		strh	r3, [r7, #26]	@ movhi
 370 0124 7B8B     		ldrh	r3, [r7, #26]
 371 0126 0A2B     		cmp	r3, #10
 372 0128 E5D9     		bls	.L21
 192:.\main.c      ****                 break;
 373              		.loc 1 192 0
 374 012a 00BF     		nop
 375              	.LBE5:
 196:.\main.c      ****     
 197:.\main.c      ****     LCD_Position(0u, 8u);
 376              		.loc 1 197 0
 377 012c 4FF00000 		mov	r0, #0
 378 0130 4FF00801 		mov	r1, #8
 379 0134 FFF7FEFF 		bl	LCD_Position
 198:.\main.c      ****     LCD_PrintInt16(max_echo);
 380              		.loc 1 198 0
 381 0138 BB8B     		ldrh	r3, [r7, #28]
 382 013a 1846     		mov	r0, r3
 383 013c FFF7FEFF 		bl	LCD_PrintInt16
 199:.\main.c      ****     
 200:.\main.c      ****     FanController_SetDutyCycle(FAN, MIN_DUTY);
 384              		.loc 1 200 0
 385 0140 4FF00100 		mov	r0, #1
 386 0144 4FF03201 		mov	r1, #50
 387 0148 FFF7FEFF 		bl	FanController_SetDutyCycle
 201:.\main.c      ****     CyDelay(4000u);
 388              		.loc 1 201 0
 389 014c 4FF47A60 		mov	r0, #4000
 390 0150 FFF7FEFF 		bl	CyDelay
 391 0154 00E0     		b	.L17
 392              	.L22:
 202:.\main.c      ****     
 203:.\main.c      ****     
 204:.\main.c      ****     while(1u) {
 205:.\main.c      ****         
 206:.\main.c      ****         /* Update fan speed */
 207:.\main.c      ****         
 208:.\main.c      ****         /* Synchronize firmware to end-of-cycle pulse from FanController */
 209:.\main.c      ****         if(EOC_SR_Read())
 210:.\main.c      ****         {
 211:.\main.c      ****             
 212:.\main.c      ****              // Check for potentiometer reading to change speed
 213:.\main.c      ****             if(ADC_DelSig_1_IsEndConversion(ADC_DelSig_1_RETURN_STATUS))
ARM GAS  C:\Users\gmh5970\AppData\Local\Temp\ccDNFPTs.s 			page 12


 214:.\main.c      ****             {
 215:.\main.c      ****                 uint16 output = ADC_DelSig_1_GetResult16() + 1; // Add one to overflow int at minim
 216:.\main.c      ****                 LCD_Position(1u, 8u);
 217:.\main.c      ****                 LCD_PrintInt16(output);
 218:.\main.c      ****                 float speed = (((float) output)/(float)256 * (((float)MAX_RPM) - ((float)MIN_RPM)))
 219:.\main.c      ****                 float duty = (((float) output)/(float)256 * (((float)MAX_DUTY) - ((float)MIN_DUTY))
 220:.\main.c      ****                 dutyCycle = (uint16) duty;
 221:.\main.c      ****                 desiredSpeed = (uint16) speed;
 222:.\main.c      ****                 /* Display Updated Desired Speed */
 223:.\main.c      ****                 LCD_Position(1u, 0u);
 224:.\main.c      ****                 LCD_PrintDecUint16(desiredSpeed);
 225:.\main.c      ****                 //FanController_SetDesiredSpeed(FAN, desiredSpeed);
 226:.\main.c      ****                 FanController_SetDutyCycle(FAN, dutyCycle);
 227:.\main.c      ****                 /* Display echo */
 228:.\main.c      ****                 LCD_Position(0u, 0u);
 229:.\main.c      ****                 LCD_PrintInt16(getEcho());
 230:.\main.c      ****                 
 231:.\main.c      ****             }
 232:.\main.c      ****         }
 233:.\main.c      ****     }
 393              		.loc 1 233 0
 394 0156 00BF     		nop
 395              	.L17:
 209:.\main.c      ****         if(EOC_SR_Read())
 396              		.loc 1 209 0
 397 0158 FFF7FEFF 		bl	EOC_SR_Read
 398 015c 0346     		mov	r3, r0
 399 015e 002B     		cmp	r3, #0
 400 0160 F9D0     		beq	.L22
 213:.\main.c      ****             if(ADC_DelSig_1_IsEndConversion(ADC_DelSig_1_RETURN_STATUS))
 401              		.loc 1 213 0
 402 0162 4FF00100 		mov	r0, #1
 403 0166 FFF7FEFF 		bl	ADC_DelSig_1_IsEndConversion
 404 016a 0346     		mov	r3, r0
 405 016c 002B     		cmp	r3, #0
 406 016e F2D0     		beq	.L22
 407              	.LBB6:
 215:.\main.c      ****                 uint16 output = ADC_DelSig_1_GetResult16() + 1; // Add one to overflow int at minim
 408              		.loc 1 215 0
 409 0170 FFF7FEFF 		bl	ADC_DelSig_1_GetResult16
 410 0174 0346     		mov	r3, r0
 411 0176 9BB2     		uxth	r3, r3
 412 0178 03F10103 		add	r3, r3, #1
 413 017c FB81     		strh	r3, [r7, #14]	@ movhi
 216:.\main.c      ****                 LCD_Position(1u, 8u);
 414              		.loc 1 216 0
 415 017e 4FF00100 		mov	r0, #1
 416 0182 4FF00801 		mov	r1, #8
 417 0186 FFF7FEFF 		bl	LCD_Position
 217:.\main.c      ****                 LCD_PrintInt16(output);
 418              		.loc 1 217 0
 419 018a FB89     		ldrh	r3, [r7, #14]
 420 018c 1846     		mov	r0, r3
 421 018e FFF7FEFF 		bl	LCD_PrintInt16
 218:.\main.c      ****                 float speed = (((float) output)/(float)256 * (((float)MAX_RPM) - ((float)MIN_RPM)))
 422              		.loc 1 218 0
 423 0192 FB89     		ldrh	r3, [r7, #14]
ARM GAS  C:\Users\gmh5970\AppData\Local\Temp\ccDNFPTs.s 			page 13


 424 0194 1846     		mov	r0, r3
 425 0196 FFF7FEFF 		bl	__aeabi_ui2f
 426 019a 0346     		mov	r3, r0
 427 019c 1846     		mov	r0, r3
 428 019e 4FF08741 		mov	r1, #1132462080
 429 01a2 FFF7FEFF 		bl	__aeabi_fdiv
 430 01a6 0346     		mov	r3, r0
 431 01a8 1846     		mov	r0, r3
 432 01aa 4FF44041 		mov	r1, #49152
 433 01ae C4F2DA51 		movt	r1, 17882
 434 01b2 FFF7FEFF 		bl	__aeabi_fmul
 435 01b6 0346     		mov	r3, r0
 436 01b8 1846     		mov	r0, r3
 437 01ba 4FF48041 		mov	r1, #16384
 438 01be C4F21C51 		movt	r1, 17692
 439 01c2 FFF7FEFF 		bl	__aeabi_fadd
 440 01c6 0346     		mov	r3, r0
 441 01c8 BB60     		str	r3, [r7, #8]	@ float
 219:.\main.c      ****                 float duty = (((float) output)/(float)256 * (((float)MAX_DUTY) - ((float)MIN_DUTY))
 442              		.loc 1 219 0
 443 01ca FB89     		ldrh	r3, [r7, #14]
 444 01cc 1846     		mov	r0, r3
 445 01ce FFF7FEFF 		bl	__aeabi_ui2f
 446 01d2 0346     		mov	r3, r0
 447 01d4 1846     		mov	r0, r3
 448 01d6 4FF08741 		mov	r1, #1132462080
 449 01da FFF7FEFF 		bl	__aeabi_fdiv
 450 01de 0346     		mov	r3, r0
 451 01e0 1846     		mov	r0, r3
 452 01e2 4FF43041 		mov	r1, #45056
 453 01e6 C4F21A61 		movt	r1, 17946
 454 01ea FFF7FEFF 		bl	__aeabi_fmul
 455 01ee 0346     		mov	r3, r0
 456 01f0 1846     		mov	r0, r3
 457 01f2 4FF00001 		mov	r1, #0
 458 01f6 C4F24821 		movt	r1, 16968
 459 01fa FFF7FEFF 		bl	__aeabi_fadd
 460 01fe 0346     		mov	r3, r0
 461 0200 7B60     		str	r3, [r7, #4]	@ float
 220:.\main.c      ****                 dutyCycle = (uint16) duty;
 462              		.loc 1 220 0
 463 0202 7868     		ldr	r0, [r7, #4]	@ float
 464 0204 FFF7FEFF 		bl	__aeabi_f2uiz
 465 0208 0346     		mov	r3, r0
 466 020a FB82     		strh	r3, [r7, #22]	@ movhi
 221:.\main.c      ****                 desiredSpeed = (uint16) speed;
 467              		.loc 1 221 0
 468 020c B868     		ldr	r0, [r7, #8]	@ float
 469 020e FFF7FEFF 		bl	__aeabi_f2uiz
 470 0212 0346     		mov	r3, r0
 471 0214 3B83     		strh	r3, [r7, #24]	@ movhi
 223:.\main.c      ****                 LCD_Position(1u, 0u);
 472              		.loc 1 223 0
 473 0216 4FF00100 		mov	r0, #1
 474 021a 4FF00001 		mov	r1, #0
 475 021e FFF7FEFF 		bl	LCD_Position
 224:.\main.c      ****                 LCD_PrintDecUint16(desiredSpeed);
ARM GAS  C:\Users\gmh5970\AppData\Local\Temp\ccDNFPTs.s 			page 14


 476              		.loc 1 224 0
 477 0222 3B8B     		ldrh	r3, [r7, #24]
 478 0224 1846     		mov	r0, r3
 479 0226 FFF7FEFF 		bl	LCD_PrintU32Number
 226:.\main.c      ****                 FanController_SetDutyCycle(FAN, dutyCycle);
 480              		.loc 1 226 0
 481 022a FB8A     		ldrh	r3, [r7, #22]
 482 022c 4FF00100 		mov	r0, #1
 483 0230 1946     		mov	r1, r3
 484 0232 FFF7FEFF 		bl	FanController_SetDutyCycle
 228:.\main.c      ****                 LCD_Position(0u, 0u);
 485              		.loc 1 228 0
 486 0236 4FF00000 		mov	r0, #0
 487 023a 4FF00001 		mov	r1, #0
 488 023e FFF7FEFF 		bl	LCD_Position
 229:.\main.c      ****                 LCD_PrintInt16(getEcho());
 489              		.loc 1 229 0
 490 0242 FFF7FEFF 		bl	getEcho
 491 0246 0346     		mov	r3, r0
 492 0248 1846     		mov	r0, r3
 493 024a FFF7FEFF 		bl	LCD_PrintInt16
 494              	.LBE6:
 495              		.loc 1 233 0
 496 024e 82E7     		b	.L22
 497              		.cfi_endproc
 498              	.LFE59:
 499              		.size	main, .-main
 500              		.text
 501              	.Letext0:
 502              		.file 2 "c:\\program files (x86)\\cypress\\psoc creator\\3.0\\psoc creator\\import\\gnu_cs\\arm\\4
 503              		.file 3 "./Generated_Source/PSoC5/cytypes.h"
 504              		.file 4 "./Generated_Source/PSoC5/core_cm3.h"